#SYMBOLS
Index	Identifier	Type	Flag	Data	Size	RefCount
0	__D0main	6	1	0	4	15
1	__D0IMU_SendCommand	6	1	4	4	8
2	__D0IMU_ReadInteger	6	1	8	4	1
3	__D0StopAllTasks_inline_main	6	1	12	4	4
4	__DU0SetSensorLowspeed_inline_IMU_Init	5	1	16	4	2
5	__D0SetSensorLowspeed_inline_IMU_Init	6	1	20	4	3
6	__D0IMU_ReadAcceleration	6	1	24	4	16
7	__RLSBmutex3	9	0	28	4	4
8	__RLSBmutex2	9	0	32	4	4
9	__RLSBmutex1	9	0	36	4	4
10	__D0IMU_MLBToInteger	6	1	40	4	5
11	__DU0fopen	5	1	44	4	3
12	__D0fopen	6	1	48	4	3
13	__D0fputs_inline_main	6	1	52	4	15
14	__constVal37632	6	0	56	4	1
15	__fopen_default_size	5	0	60	4	1
16	__signed_stack_001fputs_inline_main	6	1	64	4	4
17	__Wait_7qG2_ms_7qG2_000_inline_init	5	1	68	4	2
18	__IMU_MLBToInteger_shift_tmp	6	1	72	4	4
19	__fopen_7qG2_fsize_7qG2_000	5	1	76	4	4
20	__unsigned_stack_001main	5	1	80	4	2
21	__unsigned_stack_002IMU_MLBToInteger	5	1	84	4	2
22	__unsigned_stack_001IMU_MLBToInteger	5	1	88	4	2
23	__signed_stack_001fopen	6	1	92	4	2
24	__signed_stack_001main	6	1	96	4	2
25	__signed_stack_001IMU_SendCommand	6	1	100	4	2
26	__signed_stack_001IMU_ReadAcceleration	6	1	104	4	34
27	__CLSWMutex2	9	0	108	4	4
28	__CLSCSMutex2	9	0	112	4	10
29	__CLSRMutex1	9	0	116	4	2
30	__CLSWMutex3	9	0	120	4	4
31	__CLSCSMutex3	9	0	124	4	10
32	__CLSRMutex2	9	0	128	4	2
33	__CLSWMutex0	9	0	132	4	4
34	__CLSCSMutex0	9	0	136	4	10
35	__ResetSensorMutex	9	0	140	4	2
36	__CLSWMutex1	9	0	144	4	4
37	__CLSCSMutex1	9	0	148	4	10
38	__CLSRMutex0	9	0	152	4	2
39	__RLSBmutex0	9	0	156	4	4
40	__CLSRMutex3	9	0	160	4	2
41	__IMU_MLBToInteger_7qG2_i_7qG2_000	4	1	164	2	2
42	__IMU_SendCommand_7qG2_status_7qG2_000	4	1	166	2	3
43	__constVal128	4	0	168	2	3
44	__fputs_7qG2_cnt_7qG2_000_inline_main	4	1	170	2	4
45	__IMU_ReadAcceleration_7qG2_e_7qG2_000	4	1	172	2	3
46	__IMU_ReadAcceleration_7qG2_count_7qG2_000	4	1	174	2	6
47	__fopen_7qG2_result_7qG2_000	4	1	176	2	5
48	__IMU_MLBToInteger_return	1	1	178	1	6
49	__ResetSensor_7qG2_port_7qG2_000_inline_SetSensorLowspeed_inline_IMU_Init	1	1	179	1	2
50	__OnRev_Tmp	2	1	180	1	2
51	__IMU_SendCommand_7qG2_port_7qG2_000	1	1	181	1	4
52	__IMU_MLBToInteger_shift_cnt	2	1	182	1	4
53	__SetSensorMode_7qG2_mode_7qG2_000_inline_SetSensorLowspeed_inline_IMU_Init	1	1	183	1	2
54	__init_return	1	1	184	1	3
55	__constVal1	2	0	185	1	4
56	__fopen_return	1	1	186	1	4
57	__fopen_7qG2_handle_7qG2_000	1	1	187	1	5
58	__IMU_MLBToInteger_7qG2_lsb_7qG2_000	1	1	188	1	4
59	__IMU_MLBToInteger_7qG2_msb_7qG2_000	1	1	189	1	4
60	__constVal32	2	0	190	1	6
61	__constVal63	2	0	191	1	2
62	__IMU_Init_7qG2_port_7qG2_000	1	1	192	1	2
63	__IMU_ReadAcceleration_7qG2_port_7qG2_000	1	1	193	1	5
64	__constVal65	2	0	194	1	1
65	__IMU_Init_return	1	1	195	1	3
66	__IMU_ReadAcceleration_7qG2_i2cAddr_7qG2_000	1	1	196	1	3
67	__IMU_ReadAcceleration_7qG2_nByteReady_7qG2_000	1	1	197	1	3
68	__constVal69	2	0	198	1	1
69	__IMU_ReadAcceleration_return	1	1	199	1	3
70	____initialize_global_data_return	1	1	200	1	3
71	__IMU_SendCommand_7qG2_cmd_7qG2_000	1	1	201	1	2
72	__SetSensorType_7qG2_type_7qG2_000_inline_SetSensorLowspeed_inline_IMU_Init	1	1	202	1	2
73	__IMU_SendCommand_7qG2_i2cAddr_7qG2_000	1	1	203	1	2
74	__SetSensorMode_7qG2_port_7qG2_000_inline_SetSensorLowspeed_inline_IMU_Init	1	1	204	1	2
75	__IMU_SendCommand_return	1	1	205	1	3
76	__SetSensorLowspeed_7qG2_bIsPowered_7qG2_000_inline_IMU_Init	1	1	206	1	2
77	__SetSensorLowspeed_7qG2_port_7qG2_000_inline_IMU_Init	1	1	207	1	4
78	__SetSensorType_7qG2_port_7qG2_000_inline_SetSensorLowspeed_inline_IMU_Init	1	1	208	1	2
79	__constVal96	2	0	209	1	2
80	__main_7qG2_file_7qG2_000	1	1	210	1	6
81	__constVal12	2	0	211	1	1
82	__constVal66	2	0	212	1	1
83	__constVal100	2	0	213	1	1
84	__PFTmp	1	1	214	1	1
85	__zfIMU_ReadAcceleration	1	1	215	1	10
86	__tmpsbyteIMU_SendCommand	2	1	216	1	2
87	__ArrHelper__IMU_ReadAcceleration_98_0	1	1	217	1	30
88	__zffopen	1	1	218	1	3
89	____ReadLSBytesVar_return	1	1	219	1	4
90	__RLSBResultVar	2	1	220	1	9
91	__constVal15	2	0	221	1	1
92	__constVal2	2	0	222	1	1
93	__constValNeg1	2	0	223	1	2
94	__RLSReadPort	1	1	224	1	5
95	__RLSBytesCountVar	1	1	225	1	10
96	__RLSBIterationsVar	1	1	226	1	4
97	__zfIMU_SendCommand	1	1	227	1	3
98	__constVal3	2	0	228	1	2
99	__zffputs_inline_main	1	1	229	1	6
100	__ResetSensorPort	1	1	230	1	3
101	____ResetSensorSubroutine_return	1	1	231	1	3
102	__ResetSensorTmp	1	1	232	1	2
103	__fputs_7qG2_handle_7qG2_000_inline_main	1	1	233	1	2
104	__zfmain	1	1	234	1	7
105	__constVal0	2	1	235	1	10
106	__zfSetSensorLowspeed_inline_IMU_Init	1	1	236	1	2
107	__FOArgs	8	0	4	12	15
108	__FOArgs.Result	3	1	240	2	15
109	__FOArgs.FileHandle	1	1	242	1	15
110	__FOArgs.Filename	7	0	244	4	15
111	__FOArgs.Filename.Filename_type	1	0	0	1	0
112	__FOArgs.Length	5	1	248	4	15
113	__RBtnArgs	8	0	5	8	4
114	__RBtnArgs.Result	2	1	252	1	4
115	__RBtnArgs.Index	1	1	253	1	4
116	__RBtnArgs.Pressed	1	1	254	1	4
117	__RBtnArgs.Count	1	1	255	1	4
118	__RBtnArgs.Reset	1	1	256	1	4
119	__main_7qG2_currAccl_7qG2_001	8	0	13	20	3
120	__main_7qG2_currAccl_7qG2_001.tx	4	1	260	2	3
121	__main_7qG2_currAccl_7qG2_001.ty	4	1	262	2	3
122	__main_7qG2_currAccl_7qG2_001.tz	4	1	264	2	3
123	__main_7qG2_currAccl_7qG2_001.ax_h	1	1	266	1	3
124	__main_7qG2_currAccl_7qG2_001.ax_l	1	1	267	1	3
125	__main_7qG2_currAccl_7qG2_001.ay_h	1	1	268	1	3
126	__main_7qG2_currAccl_7qG2_001.ay_l	1	1	269	1	3
127	__main_7qG2_currAccl_7qG2_001.az_h	1	1	270	1	3
128	__main_7qG2_currAccl_7qG2_001.az_l	1	1	271	1	3
129	__main_7qG2_currAccl_7qG2_001.ax	4	1	272	2	3
130	__main_7qG2_currAccl_7qG2_001.ay	4	1	274	2	3
131	__main_7qG2_currAccl_7qG2_001.az	4	1	276	2	3
132	__main_7qG2_currAccl_7qG2_001.error	4	1	278	2	3
133	__FCArgs	8	0	2	4	3
134	__FCArgs.Result	3	1	280	2	3
135	__FCArgs.FileHandle	1	1	282	1	3
136	__CLSWArgs0	8	0	4	12	10
137	__CLSWArgs0.Result	2	1	284	1	10
138	__CLSWArgs0.Port	1	1	285	1	10
139	__CLSWArgs0.Buffer	7	0	286	4	10
140	__CLSWArgs0.Buffer.Buffer_type	1	0	0	1	0
141	__CLSWArgs0.ReturnLen	1	1	288	1	10
142	__CLSCSArgs0	8	0	3	4	20
143	__CLSCSArgs0.Result	2	1	292	1	20
144	__CLSCSArgs0.Port	1	1	293	1	20
145	__CLSCSArgs0.BytesReady	1	1	294	1	20
146	__CLSRArgs0	8	0	4	12	5
147	__CLSRArgs0.Result	2	1	296	1	5
148	__CLSRArgs0.Port	1	1	297	1	5
149	__CLSRArgs0.Buffer	7	0	298	4	5
150	__CLSRArgs0.Buffer.Buffer_type	1	0	0	1	0
151	__CLSRArgs0.BufferLen	1	1	300	1	5
152	__IMU_ReadAcceleration_7qG2_currAccl_7qG2_000	8	0	13	20	21
153	__IMU_ReadAcceleration_7qG2_currAccl_7qG2_000.tx	4	1	304	2	21
154	__IMU_ReadAcceleration_7qG2_currAccl_7qG2_000.ty	4	1	306	2	21
155	__IMU_ReadAcceleration_7qG2_currAccl_7qG2_000.tz	4	1	308	2	21
156	__IMU_ReadAcceleration_7qG2_currAccl_7qG2_000.ax_h	1	1	310	1	21
157	__IMU_ReadAcceleration_7qG2_currAccl_7qG2_000.ax_l	1	1	311	1	21
158	__IMU_ReadAcceleration_7qG2_currAccl_7qG2_000.ay_h	1	1	312	1	21
159	__IMU_ReadAcceleration_7qG2_currAccl_7qG2_000.ay_l	1	1	313	1	21
160	__IMU_ReadAcceleration_7qG2_currAccl_7qG2_000.az_h	1	1	314	1	21
161	__IMU_ReadAcceleration_7qG2_currAccl_7qG2_000.az_l	1	1	315	1	21
162	__IMU_ReadAcceleration_7qG2_currAccl_7qG2_000.ax	4	1	316	2	21
163	__IMU_ReadAcceleration_7qG2_currAccl_7qG2_000.ay	4	1	318	2	21
164	__IMU_ReadAcceleration_7qG2_currAccl_7qG2_000.az	4	1	320	2	21
165	__IMU_ReadAcceleration_7qG2_currAccl_7qG2_000.error	4	1	322	2	21
166	__FWriteArgs	8	0	4	12	14
167	__FWriteArgs.Result	3	1	324	2	14
168	__FWriteArgs.FileHandle	1	1	326	1	14
169	__FWriteArgs.Buffer	7	0	328	4	14
170	__FWriteArgs.Buffer.Buffer_type	1	0	0	1	0
171	__FWriteArgs.Length	5	1	332	4	14
172	__FDArgs	8	0	2	8	3
173	__FDArgs.Result	3	1	336	2	3
174	__FDArgs.Filename	7	0	338	4	3
175	__FDArgs.Filename.Filename_type	1	0	0	1	0
176	__fputs_7qG2_str_7qG2_000_inline_main	7	0	340	4	4
177	__fputs_7qG2_str_7qG2_000_inline_main.__fputs_7qG2_str_7qG2_000_inline_main_type	1	0	0	1	0
178	__constStr0010	7	0	342	4	1
179	__constStr0010.__constStr0010_type	1	1	0	1	0
180	__constStr0009	7	0	344	4	1
181	__constStr0009.__constStr0009_type	1	1	0	1	0
182	__main_7qG2_filename_7qG2_000	7	0	346	4	2
183	__main_7qG2_filename_7qG2_000.__main_7qG2_filename_7qG2_000_type	1	0	0	1	0
184	__OUT_AC	7	0	348	4	2
185	__OUT_AC.__OUT_AC_type	1	0	0	1	0
186	__strbufmain	7	0	350	4	11
187	__strbufmain.__strbufmain_type	1	0	0	1	0
188	__strretvalmain	7	0	352	4	2
189	__strretvalmain.__strretvalmain_type	1	0	0	1	0
190	__fopen_7qG2_filename_7qG2_000	7	0	354	4	4
191	__fopen_7qG2_filename_7qG2_000.__fopen_7qG2_filename_7qG2_000_type	1	0	0	1	0
192	__RLSLastGoodReadVar	7	0	356	4	2
193	__RLSLastGoodReadVar.__RLSLastGoodReadVar_type	1	0	0	1	0
194	__RLSReadBufVar	7	0	358	4	10
195	__RLSReadBufVar.__RLSReadBufVar_type	1	0	0	1	0
196	__strbuffopen	7	0	360	4	4
197	__strbuffopen.__strbuffopen_type	1	0	0	1	0
198	__fopen_7qG2_mode_7qG2_000	7	0	362	4	2
199	__fopen_7qG2_mode_7qG2_000.__fopen_7qG2_mode_7qG2_000_type	1	0	0	1	0
200	__IMU_SendCommand_7qG2_cmdBuf_7qG2_000	7	0	364	4	2
201	__IMU_SendCommand_7qG2_cmdBuf_7qG2_000.__IMU_SendCommand_7qG2_cmdBuf_7qG2_000_type	1	0	0	1	0
202	__IMU_ReadAcceleration_7qG2_message_7qG2_000	7	0	366	4	4
203	__IMU_ReadAcceleration_7qG2_message_7qG2_000.__IMU_ReadAcceleration_7qG2_message_7qG2_000_type	1	0	0	1	0
204	__IMU_ReadAcceleration_7qG2_buf_7qG2_000	7	0	368	4	18
205	__IMU_ReadAcceleration_7qG2_buf_7qG2_000.__IMU_ReadAcceleration_7qG2_buf_7qG2_000_type	1	0	0	1	0
206	__constStr0006	7	0	370	4	1
207	__constStr0006.__constStr0006_type	1	1	0	1	0
208	__constStr0007	7	0	372	4	2
209	__constStr0007.__constStr0007_type	1	1	0	1	0
210	__constStr0008	7	0	374	4	1
211	__constStr0008.__constStr0008_type	1	1	0	1	0
#SOURCES
Clump	Line	PC	Source
0	13	0	#line 13 "C:\Users\Administrator.FEQ\Desktop\nxt\china\testing.nxc"
0	14	0		subcall __initialize_global_data, ____initialize_global_data_return
0	13	2	#line 13 "C:\Users\Administrator.FEQ\Desktop\nxt\china\testing.nxc"
0	15	2	#line 15 "C:\Users\Administrator.FEQ\Desktop\nxt\china\testing.nxc"
0	16	2		subcall init, __init_return
0	15	4	#line 15 "C:\Users\Administrator.FEQ\Desktop\nxt\china\testing.nxc"
0	15	4	#line 15 "C:\Users\Administrator.FEQ\Desktop\nxt\china\testing.nxc"
0	17	4	#line 17 "C:\Users\Administrator.FEQ\Desktop\nxt\china\testing.nxc"
0	18	4	#pragma macro 10
0	18	4		neg __OnRev_Tmp, __constVal100
0	18	7		setout __OUT_AC, 2, __OnRev_Tmp, 1, __constVal3, 8, __constVal0, 6, __constVal32, 7, __constVal0, 5, __constVal0, 10, __constVal96, 11, __constVal32, 12, __constVal32, 0, __constVal63
0	6788	30	#line 6788 "C:\Users\Administrator.FEQ\Desktop\nxt\china\testing.nxc"
0	17	30	#line 17 "C:\Users\Administrator.FEQ\Desktop\nxt\china\testing.nxc"
0	18	30	#line 18 "C:\Users\Administrator.FEQ\Desktop\nxt\china\testing.nxc"
0	19	30		strcat __strbufmain, __constStr0009
0	18	34	#line 18 "C:\Users\Administrator.FEQ\Desktop\nxt\china\testing.nxc"
0	19	34		mov __main_7qG2_filename_7qG2_000, __strbufmain
0	18	36	#line 18 "C:\Users\Administrator.FEQ\Desktop\nxt\china\testing.nxc"
0	19	36	#pragma macro 5
0	19	36		mov __FDArgs.Filename, __strbufmain
0	19	38		syscall 8, __FDArgs
0	19	41		mov __D0main, __FDArgs.Result
0	6799	44	#line 6799 "C:\Users\Administrator.FEQ\Desktop\nxt\china\testing.nxc"
0	18	44	#line 18 "C:\Users\Administrator.FEQ\Desktop\nxt\china\testing.nxc"
0	18	44	#line 18 "C:\Users\Administrator.FEQ\Desktop\nxt\china\testing.nxc"
0	19	44	#line 19 "C:\Users\Administrator.FEQ\Desktop\nxt\china\testing.nxc"
0	20	44		strcat __strbufmain, __main_7qG2_filename_7qG2_000
0	19	48	#line 19 "C:\Users\Administrator.FEQ\Desktop\nxt\china\testing.nxc"
0	20	48		mov __fopen_7qG2_filename_7qG2_000, __strbufmain
0	19	50	#line 19 "C:\Users\Administrator.FEQ\Desktop\nxt\china\testing.nxc"
0	20	50		strcat __strbufmain, __constStr0007
0	19	54	#line 19 "C:\Users\Administrator.FEQ\Desktop\nxt\china\testing.nxc"
0	20	54		mov __fopen_7qG2_mode_7qG2_000, __strbufmain
0	20	56	#line 20 "C:\Users\Administrator.FEQ\Desktop\nxt\china\testing.nxc"
0	21	56		subcall fopen, __fopen_return
0	20	58	#line 20 "C:\Users\Administrator.FEQ\Desktop\nxt\china\testing.nxc"
0	21	58		mov __main_7qG2_file_7qG2_000, __DU0fopen
0	20	60	#line 20 "C:\Users\Administrator.FEQ\Desktop\nxt\china\testing.nxc"
0	20	60	#line 20 "C:\Users\Administrator.FEQ\Desktop\nxt\china\testing.nxc"
0	21	60		mov __unsigned_stack_001main, __DU0fopen
0	20	62	#line 20 "C:\Users\Administrator.FEQ\Desktop\nxt\china\testing.nxc"
0	20	62	#line 20 "C:\Users\Administrator.FEQ\Desktop\nxt\china\testing.nxc"
0	21	62		set __D0main, 0
0	20	65	#line 20 "C:\Users\Administrator.FEQ\Desktop\nxt\china\testing.nxc"
0	21	65		cmp 4, __zfmain, __unsigned_stack_001main, __D0main
0	20	69	#line 20 "C:\Users\Administrator.FEQ\Desktop\nxt\china\testing.nxc"
0	21	69		mov __D0main, __zfmain
0	21	71	#line 21 "C:\Users\Administrator.FEQ\Desktop\nxt\china\testing.nxc"
0	22	71		brtst 4, __NXC_Label_898, __zfmain
0	7934	74	#line 7934 "NXCDefs.h"
0	7935	74		set __D0StopAllTasks_inline_main, 1
0	7934	77	#line 7934 "NXCDefs.h"
0	7935	77		stop __D0StopAllTasks_inline_main
0	7934	79	#line 7934 "NXCDefs.h"
0	22	79	#line 22 "C:\Users\Administrator.FEQ\Desktop\nxt\china\testing.nxc"
0	25	79	#line 25 "C:\Users\Administrator.FEQ\Desktop\nxt\china\testing.nxc"
0	25	79	#line 25 "C:\Users\Administrator.FEQ\Desktop\nxt\china\testing.nxc"
0	26	79		set __D0main, 1
0	28	82	#line 28 "C:\Users\Administrator.FEQ\Desktop\nxt\china\testing.nxc"
0	29	82		tst 5, __zfmain, __D0main
0	28	85	#line 28 "C:\Users\Administrator.FEQ\Desktop\nxt\china\testing.nxc"
0	29	85		brtst 4, __NXC_Label_900, __zfmain
0	29	88	#line 29 "C:\Users\Administrator.FEQ\Desktop\nxt\china\testing.nxc"
0	30	88		set __IMU_ReadAcceleration_7qG2_port_7qG2_000, 0
0	29	91	#line 29 "C:\Users\Administrator.FEQ\Desktop\nxt\china\testing.nxc"
0	29	91	#line 29 "C:\Users\Administrator.FEQ\Desktop\nxt\china\testing.nxc"
0	30	91		set __IMU_ReadAcceleration_7qG2_i2cAddr_7qG2_000, 34
0	29	94	#line 29 "C:\Users\Administrator.FEQ\Desktop\nxt\china\testing.nxc"
0	29	94	#line 29 "C:\Users\Administrator.FEQ\Desktop\nxt\china\testing.nxc"
0	30	94		mov __IMU_ReadAcceleration_7qG2_currAccl_7qG2_000, __main_7qG2_currAccl_7qG2_001
0	30	96	#line 30 "C:\Users\Administrator.FEQ\Desktop\nxt\china\testing.nxc"
0	31	96		subcall IMU_ReadAcceleration, __IMU_ReadAcceleration_return
0	30	98	#line 30 "C:\Users\Administrator.FEQ\Desktop\nxt\china\testing.nxc"
0	31	98		mov __main_7qG2_currAccl_7qG2_001, __IMU_ReadAcceleration_7qG2_currAccl_7qG2_000
0	30	100	#line 30 "C:\Users\Administrator.FEQ\Desktop\nxt\china\testing.nxc"
0	33	100	#line 33 "C:\Users\Administrator.FEQ\Desktop\nxt\china\testing.nxc"
0	33	100	#line 33 "C:\Users\Administrator.FEQ\Desktop\nxt\china\testing.nxc"
0	33	100	#line 33 "C:\Users\Administrator.FEQ\Desktop\nxt\china\testing.nxc"
0	34	100		mov __D0main, __main_7qG2_currAccl_7qG2_001.tx
0	33	102	#line 33 "C:\Users\Administrator.FEQ\Desktop\nxt\china\testing.nxc"
0	34	102		numtostr __strretvalmain, __D0main
0	33	105	#line 33 "C:\Users\Administrator.FEQ\Desktop\nxt\china\testing.nxc"
0	34	105		strcat __strbufmain, __strretvalmain
0	33	109	#line 33 "C:\Users\Administrator.FEQ\Desktop\nxt\china\testing.nxc"
0	34	109		mov __fputs_7qG2_str_7qG2_000_inline_main, __strbufmain
0	33	111	#line 33 "C:\Users\Administrator.FEQ\Desktop\nxt\china\testing.nxc"
0	34	111		mov __fputs_7qG2_handle_7qG2_000_inline_main, __main_7qG2_file_7qG2_000
0	33	113	#line 33 "C:\Users\Administrator.FEQ\Desktop\nxt\china\testing.nxc"
0	17791	113	#line 17791 "NXCDefs.h"
0	17792	113	#pragma macro 8
0	17792	113		mov __FWriteArgs.FileHandle, __main_7qG2_file_7qG2_000
0	17792	115		strtoarr __FWriteArgs.Buffer, __fputs_7qG2_str_7qG2_000_inline_main
0	17792	118		arrsize __FWriteArgs.Length, __FWriteArgs.Buffer
0	17792	121		syscall 4, __FWriteArgs
0	17792	124		mov __D0fputs_inline_main, __FWriteArgs.Result
0	17792	127		mov __fputs_7qG2_cnt_7qG2_000_inline_main, __FWriteArgs.Length
0	6917	129	#line 6917 "NXCDefs.h"
0	17791	129	#line 17791 "NXCDefs.h"
0	17792	129		mov __signed_stack_001fputs_inline_main, __D0fputs_inline_main
0	17792	131	#line 17792 "NXCDefs.h"
0	17793	131		set __D0fputs_inline_main, 0
0	17792	134	#line 17792 "NXCDefs.h"
0	17793	134		cmp 4, __zffputs_inline_main, __signed_stack_001fputs_inline_main, __D0fputs_inline_main
0	17792	138	#line 17792 "NXCDefs.h"
0	17793	138		mov __D0fputs_inline_main, __zffputs_inline_main
0	17792	140	#line 17792 "NXCDefs.h"
0	17793	140		brtst 4, __001__NXC_Label_321, __zffputs_inline_main
0	17793	143	#line 17793 "NXCDefs.h"
0	17794	143		mov __D0fputs_inline_main, __fputs_7qG2_cnt_7qG2_000_inline_main
0	17793	145	#line 17793 "NXCDefs.h"
0	17794	145		jmp __NXC_Label_main_inline_fputs_001_end_lbl
0	17793	147	#line 17793 "NXCDefs.h"
0	17794	147	#line 17794 "NXCDefs.h"
0	17795	147		jmp __001__NXC_Label_324
0	17795	149	#line 17795 "NXCDefs.h"
0	17796	149		mov __D0fputs_inline_main, __constValNeg1
0	17795	151	#line 17795 "NXCDefs.h"
0	17796	151		jmp __NXC_Label_main_inline_fputs_001_end_lbl
0	17795	153	#line 17795 "NXCDefs.h"
0	17795	153	#line 17795 "NXCDefs.h"
0	46	153	#line 46 "C:\Users\Administrator.FEQ\Desktop\nxt\china\testing.nxc"
0	47	153		mov __D0main, __D0fputs_inline_main
0	46	155	#line 46 "C:\Users\Administrator.FEQ\Desktop\nxt\china\testing.nxc"
0	46	155	#line 46 "C:\Users\Administrator.FEQ\Desktop\nxt\china\testing.nxc"
0	47	155		strcat __strbufmain, __constStr0010
0	46	159	#line 46 "C:\Users\Administrator.FEQ\Desktop\nxt\china\testing.nxc"
0	47	159		mov __fputs_7qG2_str_7qG2_000_inline_main, __strbufmain
0	46	161	#line 46 "C:\Users\Administrator.FEQ\Desktop\nxt\china\testing.nxc"
0	47	161		mov __fputs_7qG2_handle_7qG2_000_inline_main, __main_7qG2_file_7qG2_000
0	46	163	#line 46 "C:\Users\Administrator.FEQ\Desktop\nxt\china\testing.nxc"
0	17791	163	#line 17791 "NXCDefs.h"
0	17792	163	#pragma macro 8
0	17792	163		mov __FWriteArgs.FileHandle, __main_7qG2_file_7qG2_000
0	17792	165		strtoarr __FWriteArgs.Buffer, __fputs_7qG2_str_7qG2_000_inline_main
0	17792	168		arrsize __FWriteArgs.Length, __FWriteArgs.Buffer
0	17792	171		syscall 4, __FWriteArgs
0	17792	174		mov __D0fputs_inline_main, __FWriteArgs.Result
0	17792	177		mov __fputs_7qG2_cnt_7qG2_000_inline_main, __FWriteArgs.Length
0	6965	179	#line 6965 "NXCDefs.h"
0	17791	179	#line 17791 "NXCDefs.h"
0	17792	179		mov __signed_stack_001fputs_inline_main, __D0fputs_inline_main
0	17792	181	#line 17792 "NXCDefs.h"
0	17793	181		set __D0fputs_inline_main, 0
0	17792	184	#line 17792 "NXCDefs.h"
0	17793	184		cmp 4, __zffputs_inline_main, __signed_stack_001fputs_inline_main, __D0fputs_inline_main
0	17792	188	#line 17792 "NXCDefs.h"
0	17793	188		mov __D0fputs_inline_main, __zffputs_inline_main
0	17792	190	#line 17792 "NXCDefs.h"
0	17793	190		brtst 4, __002__NXC_Label_321, __zffputs_inline_main
0	17793	193	#line 17793 "NXCDefs.h"
0	17794	193		mov __D0fputs_inline_main, __fputs_7qG2_cnt_7qG2_000_inline_main
0	17793	195	#line 17793 "NXCDefs.h"
0	17794	195		jmp __NXC_Label_main_inline_fputs_002_end_lbl
0	17793	197	#line 17793 "NXCDefs.h"
0	17794	197	#line 17794 "NXCDefs.h"
0	17795	197		jmp __002__NXC_Label_324
0	17795	199	#line 17795 "NXCDefs.h"
0	17796	199		mov __D0fputs_inline_main, __constValNeg1
0	17795	201	#line 17795 "NXCDefs.h"
0	17796	201		jmp __NXC_Label_main_inline_fputs_002_end_lbl
0	17795	203	#line 17795 "NXCDefs.h"
0	17795	203	#line 17795 "NXCDefs.h"
0	48	203	#line 48 "C:\Users\Administrator.FEQ\Desktop\nxt\china\testing.nxc"
0	48	203	#line 48 "C:\Users\Administrator.FEQ\Desktop\nxt\china\testing.nxc"
0	48	203	#line 48 "C:\Users\Administrator.FEQ\Desktop\nxt\china\testing.nxc"
0	49	203		set __signed_stack_001main, 3
0	48	206	#line 48 "C:\Users\Administrator.FEQ\Desktop\nxt\china\testing.nxc"
0	48	206	#line 48 "C:\Users\Administrator.FEQ\Desktop\nxt\china\testing.nxc"
0	49	206		set __D0main, 0
0	48	209	#line 48 "C:\Users\Administrator.FEQ\Desktop\nxt\china\testing.nxc"
0	48	209	#line 48 "C:\Users\Administrator.FEQ\Desktop\nxt\china\testing.nxc"
0	49	209		mov __RBtnArgs.Index, __signed_stack_001main
0	48	211	#line 48 "C:\Users\Administrator.FEQ\Desktop\nxt\china\testing.nxc"
0	49	211		mov __RBtnArgs.Reset, __D0main
0	48	213	#line 48 "C:\Users\Administrator.FEQ\Desktop\nxt\china\testing.nxc"
0	49	213		syscall 20, __RBtnArgs
0	48	216	#line 48 "C:\Users\Administrator.FEQ\Desktop\nxt\china\testing.nxc"
0	49	216		mov __D0main, __RBtnArgs.Pressed
0	48	218	#line 48 "C:\Users\Administrator.FEQ\Desktop\nxt\china\testing.nxc"
0	49	218	#line 49 "C:\Users\Administrator.FEQ\Desktop\nxt\china\testing.nxc"
0	50	218		tst 5, __zfmain, __D0main
0	49	221	#line 49 "C:\Users\Administrator.FEQ\Desktop\nxt\china\testing.nxc"
0	50	221		brtst 4, __NXC_Label_921, __zfmain
0	50	224	#line 50 "C:\Users\Administrator.FEQ\Desktop\nxt\china\testing.nxc"
0	51	224	#pragma macro 7
0	51	224		setout __OUT_AC, 2, __constVal0, 1, __constVal3, 8, __constVal0, 6, __constVal32, 7, __constVal0, 5, __constVal0, 10, __constVal96, 11, __constVal32, 12, __constVal32, 0, __constVal63
0	7031	247	#line 7031 "C:\Users\Administrator.FEQ\Desktop\nxt\china\testing.nxc"
0	50	247	#line 50 "C:\Users\Administrator.FEQ\Desktop\nxt\china\testing.nxc"
0	50	247	#line 50 "C:\Users\Administrator.FEQ\Desktop\nxt\china\testing.nxc"
0	50	247	#line 50 "C:\Users\Administrator.FEQ\Desktop\nxt\china\testing.nxc"
0	17724	247	#line 17724 "NXCDefs.h"
0	17725	247		set __D0main, 0
0	17724	250	#line 17724 "NXCDefs.h"
0	17724	250	#line 17724 "NXCDefs.h"
0	51	250	#line 51 "C:\Users\Administrator.FEQ\Desktop\nxt\china\testing.nxc"
0	51	250	#line 51 "C:\Users\Administrator.FEQ\Desktop\nxt\china\testing.nxc"
0	51	250	#line 51 "C:\Users\Administrator.FEQ\Desktop\nxt\china\testing.nxc"
0	51	250	#line 51 "C:\Users\Administrator.FEQ\Desktop\nxt\china\testing.nxc"
0	17590	250	#line 17590 "NXCDefs.h"
0	17591	250	#pragma macro 5
0	17591	250		mov __FCArgs.FileHandle, __main_7qG2_file_7qG2_000
0	17591	252		syscall 5, __FCArgs
0	17591	255		mov __D0main, __FCArgs.Result
0	7066	258	#line 7066 "NXCDefs.h"
0	17590	258	#line 17590 "NXCDefs.h"
0	17590	258	#line 17590 "NXCDefs.h"
0	17590	258	#line 17590 "NXCDefs.h"
0	52	258	#line 52 "C:\Users\Administrator.FEQ\Desktop\nxt\china\testing.nxc"
0	52	258	#line 52 "C:\Users\Administrator.FEQ\Desktop\nxt\china\testing.nxc"
0	7934	258	#line 7934 "NXCDefs.h"
0	7935	258		set __D0StopAllTasks_inline_main, 1
0	7934	261	#line 7934 "NXCDefs.h"
0	7935	261		stop __D0StopAllTasks_inline_main
0	7934	263	#line 7934 "NXCDefs.h"
0	53	263	#line 53 "C:\Users\Administrator.FEQ\Desktop\nxt\china\testing.nxc"
0	55	263	#line 55 "C:\Users\Administrator.FEQ\Desktop\nxt\china\testing.nxc"
0	57	263	#line 57 "C:\Users\Administrator.FEQ\Desktop\nxt\china\testing.nxc"
0	58	263		jmp __NXC_Label_899
0	57	265	#line 57 "C:\Users\Administrator.FEQ\Desktop\nxt\china\testing.nxc"
0	58	265		exit -1, -1
1	4885	0		setin __constVal1, __ResetSensorPort, 5
1	4887	4		getin __ResetSensorTmp, __ResetSensorPort, 5
1	4888	8		brtst 5, __SensorStillInvalid, __ResetSensorTmp
1	4889	11		subret ____ResetSensorSubroutine_return
2	5821	0	#pragma macro 25
2	5821	0		acquire __CLSWMutex0
2	5821	1		acquire __CLSWMutex1
2	5821	2		acquire __CLSWMutex2
2	5821	3		acquire __CLSWMutex3
2	5821	4		mov __CLSWArgs0.Port, __RLSReadPort
2	5821	6		mov __CLSWArgs0.ReturnLen, __RLSBytesCountVar
2	5821	8		mov __CLSWArgs0.Buffer, __RLSReadBufVar
2	5821	10		syscall 21, __CLSWArgs0
2	5821	13		mov __RLSBResultVar, __CLSWArgs0.Result
2	5821	15		release __CLSWMutex0
2	5821	16		release __CLSWMutex1
2	5821	17		release __CLSWMutex2
2	5821	18		release __CLSWMutex3
2	5821	19	#line 5821 "NXTDefs.h"
2	5822	19		brtst 4, __RLSBReturnVar, __RLSBytesCountVar
2	5823	22		arrinit __RLSReadBufVar, __constVal0, __RLSBytesCountVar
2	5824	26		brtst 5, __RLSBErrorVar, __RLSBResultVar
2	5825	29		set __RLSBIterationsVar, 4
2	5827	32	#pragma macro 23
2	5827	32		acquire __CLSCSMutex0
2	5827	33		acquire __CLSCSMutex1
2	5827	34		acquire __CLSCSMutex2
2	5827	35		acquire __CLSCSMutex3
2	5827	36		mov __CLSCSArgs0.Port, __RLSReadPort
2	5827	38		syscall 23, __CLSCSArgs0
2	5827	41		mov __RLSBytesCountVar, __CLSCSArgs0.BytesReady
2	5827	43		mov __RLSBResultVar, __CLSCSArgs0.Result
2	5827	45		release __CLSCSMutex0
2	5827	46		release __CLSCSMutex1
2	5827	47		release __CLSCSMutex2
2	5827	48		release __CLSCSMutex3
2	5827	49	#line 5827 "NXTDefs.h"
2	5828	49		sub __RLSBIterationsVar, __RLSBIterationsVar, __constVal1
2	5829	53		brtst 2, __RLSBErrorVar, __RLSBIterationsVar
2	5830	56		brtst 0, __RLSBErrorVar, __RLSBResultVar
2	5831	59		brtst 4, __RLSBReadyToReadVar, __RLSBResultVar
2	5833	62		wait2 NA, __constVal15
2	5834	65		jmp __RLSBDoCheckStatusVar
2	5837	67	#pragma macro 25
2	5837	67		acquire __CLSRMutex0
2	5837	68		acquire __CLSRMutex1
2	5837	69		acquire __CLSRMutex2
2	5837	70		acquire __CLSRMutex3
2	5837	71		mov __CLSRArgs0.Port, __RLSReadPort
2	5837	73		mov __CLSRArgs0.BufferLen, __RLSBytesCountVar
2	5837	75		syscall 22, __CLSRArgs0
2	5837	78		mov __RLSReadBufVar, __CLSRArgs0.Buffer
2	5837	80		mov __RLSBResultVar, __CLSRArgs0.Result
2	5837	82		release __CLSRMutex0
2	5837	83		release __CLSRMutex1
2	5837	84		release __CLSRMutex2
2	5837	85		release __CLSRMutex3
2	5837	86	#line 5837 "NXTDefs.h"
2	5838	86		brtst 5, __RLSBErrorVar, __RLSBResultVar
2	5839	89		mov __RLSLastGoodReadVar, __RLSReadBufVar
2	5840	91		jmp __RLSBDoneVar
2	5842	93		mov __RLSReadBufVar, __RLSLastGoodReadVar
2	5844	95		arrsize __RLSBytesCountVar, __RLSReadBufVar
2	5846	98		subret ____ReadLSBytesVar_return
3	17699	0	#line 17699 "NXCDefs.h"
3	17700	0		mov __fopen_7qG2_result_7qG2_000, __constVal37632
3	17699	2	#line 17699 "NXCDefs.h"
3	17700	2	#line 17700 "NXCDefs.h"
3	17701	2		strcat __strbuffopen, __fopen_7qG2_mode_7qG2_000
3	17702	6		brcmp 4, __NXC_Label_291, __constStr0006, __strbuffopen
3	17703	10		brcmp 4, __NXC_Label_294, __constStr0007, __strbuffopen
3	17704	14		brcmp 4, __NXC_Label_299, __constStr0008, __strbuffopen
3	17705	18		jmp __NXC_Label_290
3	17702	20	#line 17702 "NXCDefs.h"
3	17702	20	#line 17702 "NXCDefs.h"
3	17703	20	#pragma macro 7
3	17703	20		mov __FOArgs.Filename, __fopen_7qG2_filename_7qG2_000
3	17703	22		syscall 0, __FOArgs
3	17703	25		mov __fopen_7qG2_fsize_7qG2_000, __FOArgs.Length
3	17703	27		mov __fopen_7qG2_handle_7qG2_000, __FOArgs.FileHandle
3	17703	29		mov __fopen_7qG2_result_7qG2_000, __FOArgs.Result
3	4442	31	#line 4442 "NXCDefs.h"
3	17702	31	#line 17702 "NXCDefs.h"
3	17702	31	#line 17702 "NXCDefs.h"
3	17702	31	#line 17702 "NXCDefs.h"
3	17704	31	#line 17704 "NXCDefs.h"
3	17705	31		jmp __NXC_Label_290
3	17704	33	#line 17704 "NXCDefs.h"
3	17705	33	#line 17705 "NXCDefs.h"
3	17706	33	#line 17706 "NXCDefs.h"
3	17707	33		mov __fopen_7qG2_fsize_7qG2_000, __fopen_default_size
3	17706	35	#line 17706 "NXCDefs.h"
3	17706	35	#line 17706 "NXCDefs.h"
3	17706	35	#line 17706 "NXCDefs.h"
3	17707	35	#pragma macro 7
3	17707	35		mov __FOArgs.Filename, __fopen_7qG2_filename_7qG2_000
3	17707	37		mov __FOArgs.Length, __fopen_7qG2_fsize_7qG2_000
3	17707	39		syscall 1, __FOArgs
3	17707	42		mov __fopen_7qG2_handle_7qG2_000, __FOArgs.FileHandle
3	17707	44		mov __fopen_7qG2_result_7qG2_000, __FOArgs.Result
3	4462	46	#line 4462 "NXCDefs.h"
3	17706	46	#line 17706 "NXCDefs.h"
3	17706	46	#line 17706 "NXCDefs.h"
3	17706	46	#line 17706 "NXCDefs.h"
3	17708	46	#line 17708 "NXCDefs.h"
3	17709	46		jmp __NXC_Label_290
3	17708	48	#line 17708 "NXCDefs.h"
3	17709	48	#line 17709 "NXCDefs.h"
3	17709	48	#line 17709 "NXCDefs.h"
3	17710	48	#pragma macro 7
3	17710	48		mov __FOArgs.Filename, __fopen_7qG2_filename_7qG2_000
3	17710	50		syscall 2, __FOArgs
3	17710	53		mov __fopen_7qG2_fsize_7qG2_000, __FOArgs.Length
3	17710	55		mov __fopen_7qG2_handle_7qG2_000, __FOArgs.FileHandle
3	17710	57		mov __fopen_7qG2_result_7qG2_000, __FOArgs.Result
3	4475	59	#line 4475 "NXCDefs.h"
3	17709	59	#line 17709 "NXCDefs.h"
3	17709	59	#line 17709 "NXCDefs.h"
3	17709	59	#line 17709 "NXCDefs.h"
3	17711	59	#line 17711 "NXCDefs.h"
3	17711	59	#line 17711 "NXCDefs.h"
3	17712	59	#line 17712 "NXCDefs.h"
3	17712	59	#line 17712 "NXCDefs.h"
3	17713	59		mov __signed_stack_001fopen, __fopen_7qG2_result_7qG2_000
3	17712	61	#line 17712 "NXCDefs.h"
3	17713	61	#line 17713 "NXCDefs.h"
3	17714	61		set __D0fopen, 0
3	17713	64	#line 17713 "NXCDefs.h"
3	17714	64		cmp 5, __zffopen, __signed_stack_001fopen, __D0fopen
3	17713	68	#line 17713 "NXCDefs.h"
3	17714	68		mov __D0fopen, __zffopen
3	17713	70	#line 17713 "NXCDefs.h"
3	17714	70		brtst 4, __NXC_Label_304, __zffopen
3	17714	73	#line 17714 "NXCDefs.h"
3	17715	73		set __fopen_7qG2_handle_7qG2_000, 0
3	17714	76	#line 17714 "NXCDefs.h"
3	17714	76	#line 17714 "NXCDefs.h"
3	17714	76	#line 17714 "NXCDefs.h"
3	17715	76	#line 17715 "NXCDefs.h"
3	17716	76		mov __DU0fopen, __fopen_7qG2_handle_7qG2_000
3	17715	78	#line 17715 "NXCDefs.h"
3	17716	78		subret __fopen_return
3	17715	80	#line 17715 "NXCDefs.h"
3	17724	80	#line 17724 "NXCDefs.h"
3	17725	80		subret __fopen_return
4	71	0	#line 71 "C:\Users\Administrator.FEQ\Desktop\nxt\china\.\lib/IMU-lib.nxc"
4	72	0		mov __unsigned_stack_001IMU_MLBToInteger, __IMU_MLBToInteger_7qG2_lsb_7qG2_000
4	71	2	#line 71 "C:\Users\Administrator.FEQ\Desktop\nxt\china\.\lib/IMU-lib.nxc"
4	71	2	#line 71 "C:\Users\Administrator.FEQ\Desktop\nxt\china\.\lib/IMU-lib.nxc"
4	72	2		mov __unsigned_stack_002IMU_MLBToInteger, __IMU_MLBToInteger_7qG2_msb_7qG2_000
4	71	4	#line 71 "C:\Users\Administrator.FEQ\Desktop\nxt\china\.\lib/IMU-lib.nxc"
4	71	4	#line 71 "C:\Users\Administrator.FEQ\Desktop\nxt\china\.\lib/IMU-lib.nxc"
4	72	4		set __IMU_MLBToInteger_shift_cnt, 8
4	71	7	#line 71 "C:\Users\Administrator.FEQ\Desktop\nxt\china\.\lib/IMU-lib.nxc"
4	72	7		mov __IMU_MLBToInteger_shift_tmp, __unsigned_stack_002IMU_MLBToInteger
4	72	9	__shiftstart_1:	brtst LTEQ, __shiftdone_1, __IMU_MLBToInteger_shift_cnt
4	72	12		mul __IMU_MLBToInteger_shift_tmp, __IMU_MLBToInteger_shift_tmp, __constVal2
4	72	16		sub __IMU_MLBToInteger_shift_cnt, __IMU_MLBToInteger_shift_cnt, __constVal1
4	72	20		jmp __shiftstart_1
4	73	22	#line 73 "C:\Users\Administrator.FEQ\Desktop\nxt\china\.\lib/IMU-lib.nxc"
4	74	22		add __IMU_MLBToInteger_7qG2_i_7qG2_000, __unsigned_stack_001IMU_MLBToInteger, __IMU_MLBToInteger_shift_tmp
4	73	26	#line 73 "C:\Users\Administrator.FEQ\Desktop\nxt\china\.\lib/IMU-lib.nxc"
4	73	26	#line 73 "C:\Users\Administrator.FEQ\Desktop\nxt\china\.\lib/IMU-lib.nxc"
4	74	26	#line 74 "C:\Users\Administrator.FEQ\Desktop\nxt\china\.\lib/IMU-lib.nxc"
4	75	26		mov __D0IMU_MLBToInteger, __IMU_MLBToInteger_7qG2_i_7qG2_000
4	74	28	#line 74 "C:\Users\Administrator.FEQ\Desktop\nxt\china\.\lib/IMU-lib.nxc"
4	75	28		subret __IMU_MLBToInteger_return
4	74	30	#line 74 "C:\Users\Administrator.FEQ\Desktop\nxt\china\.\lib/IMU-lib.nxc"
4	76	30	#line 76 "C:\Users\Administrator.FEQ\Desktop\nxt\china\.\lib/IMU-lib.nxc"
4	77	30		subret __IMU_MLBToInteger_return
5	107	0	#line 107 "C:\Users\Administrator.FEQ\Desktop\nxt\china\.\lib/IMU-lib.nxc"
5	108	0		arrbuild __IMU_SendCommand_7qG2_cmdBuf_7qG2_000, __IMU_SendCommand_7qG2_i2cAddr_7qG2_000, __constVal65, __IMU_SendCommand_7qG2_cmd_7qG2_000
5	107	6	#line 107 "C:\Users\Administrator.FEQ\Desktop\nxt\china\.\lib/IMU-lib.nxc"
5	107	6	#line 107 "C:\Users\Administrator.FEQ\Desktop\nxt\china\.\lib/IMU-lib.nxc"
5	108	6	#line 108 "C:\Users\Administrator.FEQ\Desktop\nxt\china\.\lib/IMU-lib.nxc"
5	109	6	#pragma macro 25
5	109	6		acquire __CLSWMutex0
5	109	7		acquire __CLSWMutex1
5	109	8		acquire __CLSWMutex2
5	109	9		acquire __CLSWMutex3
5	109	10		mov __CLSWArgs0.Port, __IMU_SendCommand_7qG2_port_7qG2_000
5	109	12		mov __CLSWArgs0.ReturnLen, __constVal0
5	109	14		mov __CLSWArgs0.Buffer, __IMU_SendCommand_7qG2_cmdBuf_7qG2_000
5	109	16		syscall 21, __CLSWArgs0
5	109	19		mov __D0IMU_SendCommand, __CLSWArgs0.Result
5	109	22		release __CLSWMutex0
5	109	23		release __CLSWMutex1
5	109	24		release __CLSWMutex2
5	109	25		release __CLSWMutex3
5	4824	26	#line 4824 "C:\Users\Administrator.FEQ\Desktop\nxt\china\.\lib/IMU-lib.nxc"
5	108	26	#line 108 "C:\Users\Administrator.FEQ\Desktop\nxt\china\.\lib/IMU-lib.nxc"
5	108	26	#line 108 "C:\Users\Administrator.FEQ\Desktop\nxt\china\.\lib/IMU-lib.nxc"
5	109	26	#line 109 "C:\Users\Administrator.FEQ\Desktop\nxt\china\.\lib/IMU-lib.nxc"
5	110	26	#pragma macro 23
5	110	26		acquire __CLSCSMutex0
5	110	27		acquire __CLSCSMutex1
5	110	28		acquire __CLSCSMutex2
5	110	29		acquire __CLSCSMutex3
5	110	30		mov __CLSCSArgs0.Port, __IMU_SendCommand_7qG2_port_7qG2_000
5	110	32		syscall 23, __CLSCSArgs0
5	110	35		mov __tmpsbyteIMU_SendCommand, __CLSCSArgs0.BytesReady
5	110	37		mov __D0IMU_SendCommand, __CLSCSArgs0.Result
5	110	40		release __CLSCSMutex0
5	110	41		release __CLSCSMutex1
5	110	42		release __CLSCSMutex2
5	110	43		release __CLSCSMutex3
5	4832	44	#line 4832 "C:\Users\Administrator.FEQ\Desktop\nxt\china\.\lib/IMU-lib.nxc"
5	109	44	#line 109 "C:\Users\Administrator.FEQ\Desktop\nxt\china\.\lib/IMU-lib.nxc"
5	110	44		mov __IMU_SendCommand_7qG2_status_7qG2_000, __D0IMU_SendCommand
5	110	46	#line 110 "C:\Users\Administrator.FEQ\Desktop\nxt\china\.\lib/IMU-lib.nxc"
5	111	46		mov __signed_stack_001IMU_SendCommand, __IMU_SendCommand_7qG2_status_7qG2_000
5	110	48	#line 110 "C:\Users\Administrator.FEQ\Desktop\nxt\china\.\lib/IMU-lib.nxc"
5	111	48	#line 111 "C:\Users\Administrator.FEQ\Desktop\nxt\china\.\lib/IMU-lib.nxc"
5	112	48		set __D0IMU_SendCommand, 0
5	111	51	#line 111 "C:\Users\Administrator.FEQ\Desktop\nxt\china\.\lib/IMU-lib.nxc"
5	112	51		cmp 1, __zfIMU_SendCommand, __signed_stack_001IMU_SendCommand, __D0IMU_SendCommand
5	111	55	#line 111 "C:\Users\Administrator.FEQ\Desktop\nxt\china\.\lib/IMU-lib.nxc"
5	112	55		mov __D0IMU_SendCommand, __zfIMU_SendCommand
5	111	57	#line 111 "C:\Users\Administrator.FEQ\Desktop\nxt\china\.\lib/IMU-lib.nxc"
5	112	57		brtst 4, __NXC_Label_523, __zfIMU_SendCommand
5	111	60	#line 111 "C:\Users\Administrator.FEQ\Desktop\nxt\china\.\lib/IMU-lib.nxc"
5	112	60	#pragma macro 23
5	112	60		acquire __CLSCSMutex0
5	112	61		acquire __CLSCSMutex1
5	112	62		acquire __CLSCSMutex2
5	112	63		acquire __CLSCSMutex3
5	112	64		mov __CLSCSArgs0.Port, __IMU_SendCommand_7qG2_port_7qG2_000
5	112	66		syscall 23, __CLSCSArgs0
5	112	69		mov __tmpsbyteIMU_SendCommand, __CLSCSArgs0.BytesReady
5	112	71		mov __D0IMU_SendCommand, __CLSCSArgs0.Result
5	112	74		release __CLSCSMutex0
5	112	75		release __CLSCSMutex1
5	112	76		release __CLSCSMutex2
5	112	77		release __CLSCSMutex3
5	4853	78	#line 4853 "C:\Users\Administrator.FEQ\Desktop\nxt\china\.\lib/IMU-lib.nxc"
5	111	78	#line 111 "C:\Users\Administrator.FEQ\Desktop\nxt\china\.\lib/IMU-lib.nxc"
5	112	78		mov __IMU_SendCommand_7qG2_status_7qG2_000, __D0IMU_SendCommand
5	111	80	#line 111 "C:\Users\Administrator.FEQ\Desktop\nxt\china\.\lib/IMU-lib.nxc"
5	111	80	#line 111 "C:\Users\Administrator.FEQ\Desktop\nxt\china\.\lib/IMU-lib.nxc"
5	112	80		jmp __NXC_Label_522
5	111	82	#line 111 "C:\Users\Administrator.FEQ\Desktop\nxt\china\.\lib/IMU-lib.nxc"
5	111	82	#line 111 "C:\Users\Administrator.FEQ\Desktop\nxt\china\.\lib/IMU-lib.nxc"
5	118	82	#line 118 "C:\Users\Administrator.FEQ\Desktop\nxt\china\.\lib/IMU-lib.nxc"
5	119	82		subret __IMU_SendCommand_return
6	209	0	#line 209 "C:\Users\Administrator.FEQ\Desktop\nxt\china\.\lib/IMU-lib.nxc"
6	210	0		arrinit __IMU_ReadAcceleration_7qG2_buf_7qG2_000, __constVal0, __constVal12
6	212	4	#line 212 "C:\Users\Administrator.FEQ\Desktop\nxt\china\.\lib/IMU-lib.nxc"
6	213	4		set __IMU_ReadAcceleration_7qG2_nByteReady_7qG2_000, 0
6	212	7	#line 212 "C:\Users\Administrator.FEQ\Desktop\nxt\china\.\lib/IMU-lib.nxc"
6	212	7	#line 212 "C:\Users\Administrator.FEQ\Desktop\nxt\china\.\lib/IMU-lib.nxc"
6	213	7		arrbuild __IMU_ReadAcceleration_7qG2_message_7qG2_000, __IMU_ReadAcceleration_7qG2_i2cAddr_7qG2_000, __constVal66
6	212	12	#line 212 "C:\Users\Administrator.FEQ\Desktop\nxt\china\.\lib/IMU-lib.nxc"
6	212	12	#line 212 "C:\Users\Administrator.FEQ\Desktop\nxt\china\.\lib/IMU-lib.nxc"
6	213	12	#line 213 "C:\Users\Administrator.FEQ\Desktop\nxt\china\.\lib/IMU-lib.nxc"
6	214	12	#pragma macro 23
6	214	12		acquire __CLSCSMutex0
6	214	13		acquire __CLSCSMutex1
6	214	14		acquire __CLSCSMutex2
6	214	15		acquire __CLSCSMutex3
6	214	16		mov __CLSCSArgs0.Port, __IMU_ReadAcceleration_7qG2_port_7qG2_000
6	214	18		syscall 23, __CLSCSArgs0
6	214	21		mov __IMU_ReadAcceleration_7qG2_nByteReady_7qG2_000, __CLSCSArgs0.BytesReady
6	214	23		mov __D0IMU_ReadAcceleration, __CLSCSArgs0.Result
6	214	26		release __CLSCSMutex0
6	214	27		release __CLSCSMutex1
6	214	28		release __CLSCSMutex2
6	214	29		release __CLSCSMutex3
6	5797	30	#line 5797 "C:\Users\Administrator.FEQ\Desktop\nxt\china\.\lib/IMU-lib.nxc"
6	213	30	#line 213 "C:\Users\Administrator.FEQ\Desktop\nxt\china\.\lib/IMU-lib.nxc"
6	214	30		mov __signed_stack_001IMU_ReadAcceleration, __D0IMU_ReadAcceleration
6	213	32	#line 213 "C:\Users\Administrator.FEQ\Desktop\nxt\china\.\lib/IMU-lib.nxc"
6	214	32		set __D0IMU_ReadAcceleration, 32
6	213	35	#line 213 "C:\Users\Administrator.FEQ\Desktop\nxt\china\.\lib/IMU-lib.nxc"
6	214	35		cmp 4, __zfIMU_ReadAcceleration, __signed_stack_001IMU_ReadAcceleration, __D0IMU_ReadAcceleration
6	213	39	#line 213 "C:\Users\Administrator.FEQ\Desktop\nxt\china\.\lib/IMU-lib.nxc"
6	214	39		mov __D0IMU_ReadAcceleration, __zfIMU_ReadAcceleration
6	214	41	#line 214 "C:\Users\Administrator.FEQ\Desktop\nxt\china\.\lib/IMU-lib.nxc"
6	215	41		brtst 4, __NXC_Label_697, __zfIMU_ReadAcceleration
6	214	44	#line 214 "C:\Users\Administrator.FEQ\Desktop\nxt\china\.\lib/IMU-lib.nxc"
6	214	44	#line 214 "C:\Users\Administrator.FEQ\Desktop\nxt\china\.\lib/IMU-lib.nxc"
6	215	44		jmp __NXC_Label_696
6	214	46	#line 214 "C:\Users\Administrator.FEQ\Desktop\nxt\china\.\lib/IMU-lib.nxc"
6	215	46	#line 215 "C:\Users\Administrator.FEQ\Desktop\nxt\china\.\lib/IMU-lib.nxc"
6	216	46		set __IMU_ReadAcceleration_7qG2_count_7qG2_000, 3
6	215	49	#line 215 "C:\Users\Administrator.FEQ\Desktop\nxt\china\.\lib/IMU-lib.nxc"
6	215	49	#line 215 "C:\Users\Administrator.FEQ\Desktop\nxt\china\.\lib/IMU-lib.nxc"
6	215	49	#line 215 "C:\Users\Administrator.FEQ\Desktop\nxt\china\.\lib/IMU-lib.nxc"
6	216	49	#pragma macro 28
6	216	49		acquire __RLSBmutex0
6	216	50		acquire __RLSBmutex1
6	216	51		acquire __RLSBmutex2
6	216	52		acquire __RLSBmutex3
6	216	53		mov __RLSReadPort, __IMU_ReadAcceleration_7qG2_port_7qG2_000
6	216	55		mov __RLSReadBufVar, __IMU_ReadAcceleration_7qG2_message_7qG2_000
6	216	57		mov __RLSBytesCountVar, __IMU_ReadAcceleration_7qG2_count_7qG2_000
6	216	59		subcall __ReadLSBytesVar, ____ReadLSBytesVar_return
6	216	61		tst 4, __D0IMU_ReadAcceleration, __RLSBResultVar
6	216	64		mov __IMU_ReadAcceleration_7qG2_count_7qG2_000, __RLSBytesCountVar
6	216	66		mov __IMU_ReadAcceleration_7qG2_buf_7qG2_000, __RLSReadBufVar
6	216	68		release __RLSBmutex0
6	216	69		release __RLSBmutex1
6	216	70		release __RLSBmutex2
6	216	71		release __RLSBmutex3
6	5823	72	#line 5823 "C:\Users\Administrator.FEQ\Desktop\nxt\china\.\lib/IMU-lib.nxc"
6	215	72	#line 215 "C:\Users\Administrator.FEQ\Desktop\nxt\china\.\lib/IMU-lib.nxc"
6	216	72		mov __IMU_ReadAcceleration_7qG2_e_7qG2_000, __D0IMU_ReadAcceleration
6	215	74	#line 215 "C:\Users\Administrator.FEQ\Desktop\nxt\china\.\lib/IMU-lib.nxc"
6	215	74	#line 215 "C:\Users\Administrator.FEQ\Desktop\nxt\china\.\lib/IMU-lib.nxc"
6	216	74	#line 216 "C:\Users\Administrator.FEQ\Desktop\nxt\china\.\lib/IMU-lib.nxc"
6	217	74	#line 217 "C:\Users\Administrator.FEQ\Desktop\nxt\china\.\lib/IMU-lib.nxc"
6	218	74		tst 5, __zfIMU_ReadAcceleration, __D0IMU_ReadAcceleration
6	217	77	#line 217 "C:\Users\Administrator.FEQ\Desktop\nxt\china\.\lib/IMU-lib.nxc"
6	218	77		brtst 4, __NXC_Label_706, __zfIMU_ReadAcceleration
6	217	80	#line 217 "C:\Users\Administrator.FEQ\Desktop\nxt\china\.\lib/IMU-lib.nxc"
6	218	80		set __signed_stack_001IMU_ReadAcceleration, 0
6	217	83	#line 217 "C:\Users\Administrator.FEQ\Desktop\nxt\china\.\lib/IMU-lib.nxc"
6	217	83	#line 217 "C:\Users\Administrator.FEQ\Desktop\nxt\china\.\lib/IMU-lib.nxc"
6	218	83		index __ArrHelper__IMU_ReadAcceleration_98_0, __IMU_ReadAcceleration_7qG2_buf_7qG2_000, __signed_stack_001IMU_ReadAcceleration
6	217	87	#line 217 "C:\Users\Administrator.FEQ\Desktop\nxt\china\.\lib/IMU-lib.nxc"
6	217	87	#line 217 "C:\Users\Administrator.FEQ\Desktop\nxt\china\.\lib/IMU-lib.nxc"
6	218	87	#line 218 "C:\Users\Administrator.FEQ\Desktop\nxt\china\.\lib/IMU-lib.nxc"
6	218	87	#line 218 "C:\Users\Administrator.FEQ\Desktop\nxt\china\.\lib/IMU-lib.nxc"
6	219	87		sub __IMU_ReadAcceleration_7qG2_currAccl_7qG2_000.tx, __ArrHelper__IMU_ReadAcceleration_98_0, __constVal128
6	218	91	#line 218 "C:\Users\Administrator.FEQ\Desktop\nxt\china\.\lib/IMU-lib.nxc"
6	218	91	#line 218 "C:\Users\Administrator.FEQ\Desktop\nxt\china\.\lib/IMU-lib.nxc"
6	218	91	#line 218 "C:\Users\Administrator.FEQ\Desktop\nxt\china\.\lib/IMU-lib.nxc"
6	219	91		set __signed_stack_001IMU_ReadAcceleration, 1
6	218	94	#line 218 "C:\Users\Administrator.FEQ\Desktop\nxt\china\.\lib/IMU-lib.nxc"
6	218	94	#line 218 "C:\Users\Administrator.FEQ\Desktop\nxt\china\.\lib/IMU-lib.nxc"
6	219	94		index __ArrHelper__IMU_ReadAcceleration_98_0, __IMU_ReadAcceleration_7qG2_buf_7qG2_000, __signed_stack_001IMU_ReadAcceleration
6	218	98	#line 218 "C:\Users\Administrator.FEQ\Desktop\nxt\china\.\lib/IMU-lib.nxc"
6	218	98	#line 218 "C:\Users\Administrator.FEQ\Desktop\nxt\china\.\lib/IMU-lib.nxc"
6	219	98	#line 219 "C:\Users\Administrator.FEQ\Desktop\nxt\china\.\lib/IMU-lib.nxc"
6	219	98	#line 219 "C:\Users\Administrator.FEQ\Desktop\nxt\china\.\lib/IMU-lib.nxc"
6	220	98		sub __IMU_ReadAcceleration_7qG2_currAccl_7qG2_000.ty, __ArrHelper__IMU_ReadAcceleration_98_0, __constVal128
6	219	102	#line 219 "C:\Users\Administrator.FEQ\Desktop\nxt\china\.\lib/IMU-lib.nxc"
6	219	102	#line 219 "C:\Users\Administrator.FEQ\Desktop\nxt\china\.\lib/IMU-lib.nxc"
6	219	102	#line 219 "C:\Users\Administrator.FEQ\Desktop\nxt\china\.\lib/IMU-lib.nxc"
6	220	102		set __signed_stack_001IMU_ReadAcceleration, 2
6	219	105	#line 219 "C:\Users\Administrator.FEQ\Desktop\nxt\china\.\lib/IMU-lib.nxc"
6	219	105	#line 219 "C:\Users\Administrator.FEQ\Desktop\nxt\china\.\lib/IMU-lib.nxc"
6	220	105		index __ArrHelper__IMU_ReadAcceleration_98_0, __IMU_ReadAcceleration_7qG2_buf_7qG2_000, __signed_stack_001IMU_ReadAcceleration
6	219	109	#line 219 "C:\Users\Administrator.FEQ\Desktop\nxt\china\.\lib/IMU-lib.nxc"
6	219	109	#line 219 "C:\Users\Administrator.FEQ\Desktop\nxt\china\.\lib/IMU-lib.nxc"
6	220	109	#line 220 "C:\Users\Administrator.FEQ\Desktop\nxt\china\.\lib/IMU-lib.nxc"
6	220	109	#line 220 "C:\Users\Administrator.FEQ\Desktop\nxt\china\.\lib/IMU-lib.nxc"
6	221	109		sub __IMU_ReadAcceleration_7qG2_currAccl_7qG2_000.tz, __ArrHelper__IMU_ReadAcceleration_98_0, __constVal128
6	220	113	#line 220 "C:\Users\Administrator.FEQ\Desktop\nxt\china\.\lib/IMU-lib.nxc"
6	220	113	#line 220 "C:\Users\Administrator.FEQ\Desktop\nxt\china\.\lib/IMU-lib.nxc"
6	221	113	#line 221 "C:\Users\Administrator.FEQ\Desktop\nxt\china\.\lib/IMU-lib.nxc"
6	222	113		jmp __NXC_Label_719
6	222	115	#line 222 "C:\Users\Administrator.FEQ\Desktop\nxt\china\.\lib/IMU-lib.nxc"
6	223	115		set __IMU_ReadAcceleration_7qG2_currAccl_7qG2_000.tx, 0
6	222	118	#line 222 "C:\Users\Administrator.FEQ\Desktop\nxt\china\.\lib/IMU-lib.nxc"
6	222	118	#line 222 "C:\Users\Administrator.FEQ\Desktop\nxt\china\.\lib/IMU-lib.nxc"
6	223	118	#line 223 "C:\Users\Administrator.FEQ\Desktop\nxt\china\.\lib/IMU-lib.nxc"
6	224	118		set __IMU_ReadAcceleration_7qG2_currAccl_7qG2_000.ty, 0
6	223	121	#line 223 "C:\Users\Administrator.FEQ\Desktop\nxt\china\.\lib/IMU-lib.nxc"
6	223	121	#line 223 "C:\Users\Administrator.FEQ\Desktop\nxt\china\.\lib/IMU-lib.nxc"
6	224	121	#line 224 "C:\Users\Administrator.FEQ\Desktop\nxt\china\.\lib/IMU-lib.nxc"
6	225	121		set __IMU_ReadAcceleration_7qG2_currAccl_7qG2_000.tz, 0
6	224	124	#line 224 "C:\Users\Administrator.FEQ\Desktop\nxt\china\.\lib/IMU-lib.nxc"
6	224	124	#line 224 "C:\Users\Administrator.FEQ\Desktop\nxt\china\.\lib/IMU-lib.nxc"
6	226	124	#line 226 "C:\Users\Administrator.FEQ\Desktop\nxt\china\.\lib/IMU-lib.nxc"
6	226	124	#line 226 "C:\Users\Administrator.FEQ\Desktop\nxt\china\.\lib/IMU-lib.nxc"
6	227	124		arrbuild __IMU_ReadAcceleration_7qG2_message_7qG2_000, __IMU_ReadAcceleration_7qG2_i2cAddr_7qG2_000, __constVal69
6	226	129	#line 226 "C:\Users\Administrator.FEQ\Desktop\nxt\china\.\lib/IMU-lib.nxc"
6	226	129	#line 226 "C:\Users\Administrator.FEQ\Desktop\nxt\china\.\lib/IMU-lib.nxc"
6	227	129	#line 227 "C:\Users\Administrator.FEQ\Desktop\nxt\china\.\lib/IMU-lib.nxc"
6	228	129	#pragma macro 23
6	228	129		acquire __CLSCSMutex0
6	228	130		acquire __CLSCSMutex1
6	228	131		acquire __CLSCSMutex2
6	228	132		acquire __CLSCSMutex3
6	228	133		mov __CLSCSArgs0.Port, __IMU_ReadAcceleration_7qG2_port_7qG2_000
6	228	135		syscall 23, __CLSCSArgs0
6	228	138		mov __IMU_ReadAcceleration_7qG2_nByteReady_7qG2_000, __CLSCSArgs0.BytesReady
6	228	140		mov __D0IMU_ReadAcceleration, __CLSCSArgs0.Result
6	228	143		release __CLSCSMutex0
6	228	144		release __CLSCSMutex1
6	228	145		release __CLSCSMutex2
6	228	146		release __CLSCSMutex3
6	5933	147	#line 5933 "C:\Users\Administrator.FEQ\Desktop\nxt\china\.\lib/IMU-lib.nxc"
6	227	147	#line 227 "C:\Users\Administrator.FEQ\Desktop\nxt\china\.\lib/IMU-lib.nxc"
6	228	147		mov __signed_stack_001IMU_ReadAcceleration, __D0IMU_ReadAcceleration
6	227	149	#line 227 "C:\Users\Administrator.FEQ\Desktop\nxt\china\.\lib/IMU-lib.nxc"
6	228	149		set __D0IMU_ReadAcceleration, 32
6	227	152	#line 227 "C:\Users\Administrator.FEQ\Desktop\nxt\china\.\lib/IMU-lib.nxc"
6	228	152		cmp 4, __zfIMU_ReadAcceleration, __signed_stack_001IMU_ReadAcceleration, __D0IMU_ReadAcceleration
6	227	156	#line 227 "C:\Users\Administrator.FEQ\Desktop\nxt\china\.\lib/IMU-lib.nxc"
6	228	156		mov __D0IMU_ReadAcceleration, __zfIMU_ReadAcceleration
6	228	158	#line 228 "C:\Users\Administrator.FEQ\Desktop\nxt\china\.\lib/IMU-lib.nxc"
6	229	158		brtst 4, __NXC_Label_727, __zfIMU_ReadAcceleration
6	228	161	#line 228 "C:\Users\Administrator.FEQ\Desktop\nxt\china\.\lib/IMU-lib.nxc"
6	228	161	#line 228 "C:\Users\Administrator.FEQ\Desktop\nxt\china\.\lib/IMU-lib.nxc"
6	229	161		jmp __NXC_Label_726
6	228	163	#line 228 "C:\Users\Administrator.FEQ\Desktop\nxt\china\.\lib/IMU-lib.nxc"
6	229	163	#line 229 "C:\Users\Administrator.FEQ\Desktop\nxt\china\.\lib/IMU-lib.nxc"
6	230	163		set __IMU_ReadAcceleration_7qG2_count_7qG2_000, 6
6	229	166	#line 229 "C:\Users\Administrator.FEQ\Desktop\nxt\china\.\lib/IMU-lib.nxc"
6	229	166	#line 229 "C:\Users\Administrator.FEQ\Desktop\nxt\china\.\lib/IMU-lib.nxc"
6	229	166	#line 229 "C:\Users\Administrator.FEQ\Desktop\nxt\china\.\lib/IMU-lib.nxc"
6	230	166	#pragma macro 28
6	230	166		acquire __RLSBmutex0
6	230	167		acquire __RLSBmutex1
6	230	168		acquire __RLSBmutex2
6	230	169		acquire __RLSBmutex3
6	230	170		mov __RLSReadPort, __IMU_ReadAcceleration_7qG2_port_7qG2_000
6	230	172		mov __RLSReadBufVar, __IMU_ReadAcceleration_7qG2_message_7qG2_000
6	230	174		mov __RLSBytesCountVar, __IMU_ReadAcceleration_7qG2_count_7qG2_000
6	230	176		subcall __ReadLSBytesVar, ____ReadLSBytesVar_return
6	230	178		tst 4, __D0IMU_ReadAcceleration, __RLSBResultVar
6	230	181		mov __IMU_ReadAcceleration_7qG2_count_7qG2_000, __RLSBytesCountVar
6	230	183		mov __IMU_ReadAcceleration_7qG2_buf_7qG2_000, __RLSReadBufVar
6	230	185		release __RLSBmutex0
6	230	186		release __RLSBmutex1
6	230	187		release __RLSBmutex2
6	230	188		release __RLSBmutex3
6	5959	189	#line 5959 "C:\Users\Administrator.FEQ\Desktop\nxt\china\.\lib/IMU-lib.nxc"
6	229	189	#line 229 "C:\Users\Administrator.FEQ\Desktop\nxt\china\.\lib/IMU-lib.nxc"
6	230	189		mov __IMU_ReadAcceleration_7qG2_e_7qG2_000, __D0IMU_ReadAcceleration
6	229	191	#line 229 "C:\Users\Administrator.FEQ\Desktop\nxt\china\.\lib/IMU-lib.nxc"
6	229	191	#line 229 "C:\Users\Administrator.FEQ\Desktop\nxt\china\.\lib/IMU-lib.nxc"
6	230	191	#line 230 "C:\Users\Administrator.FEQ\Desktop\nxt\china\.\lib/IMU-lib.nxc"
6	231	191	#line 231 "C:\Users\Administrator.FEQ\Desktop\nxt\china\.\lib/IMU-lib.nxc"
6	232	191		tst 5, __zfIMU_ReadAcceleration, __D0IMU_ReadAcceleration
6	231	194	#line 231 "C:\Users\Administrator.FEQ\Desktop\nxt\china\.\lib/IMU-lib.nxc"
6	232	194		brtst 4, __NXC_Label_736, __zfIMU_ReadAcceleration
6	231	197	#line 231 "C:\Users\Administrator.FEQ\Desktop\nxt\china\.\lib/IMU-lib.nxc"
6	232	197		set __signed_stack_001IMU_ReadAcceleration, 0
6	231	200	#line 231 "C:\Users\Administrator.FEQ\Desktop\nxt\china\.\lib/IMU-lib.nxc"
6	231	200	#line 231 "C:\Users\Administrator.FEQ\Desktop\nxt\china\.\lib/IMU-lib.nxc"
6	232	200		index __ArrHelper__IMU_ReadAcceleration_98_0, __IMU_ReadAcceleration_7qG2_buf_7qG2_000, __signed_stack_001IMU_ReadAcceleration
6	231	204	#line 231 "C:\Users\Administrator.FEQ\Desktop\nxt\china\.\lib/IMU-lib.nxc"
6	232	204		mov __IMU_ReadAcceleration_7qG2_currAccl_7qG2_000.ax_l, __ArrHelper__IMU_ReadAcceleration_98_0
6	232	206	#line 232 "C:\Users\Administrator.FEQ\Desktop\nxt\china\.\lib/IMU-lib.nxc"
6	232	206	#line 232 "C:\Users\Administrator.FEQ\Desktop\nxt\china\.\lib/IMU-lib.nxc"
6	232	206	#line 232 "C:\Users\Administrator.FEQ\Desktop\nxt\china\.\lib/IMU-lib.nxc"
6	233	206		set __signed_stack_001IMU_ReadAcceleration, 1
6	232	209	#line 232 "C:\Users\Administrator.FEQ\Desktop\nxt\china\.\lib/IMU-lib.nxc"
6	232	209	#line 232 "C:\Users\Administrator.FEQ\Desktop\nxt\china\.\lib/IMU-lib.nxc"
6	233	209		index __ArrHelper__IMU_ReadAcceleration_98_0, __IMU_ReadAcceleration_7qG2_buf_7qG2_000, __signed_stack_001IMU_ReadAcceleration
6	232	213	#line 232 "C:\Users\Administrator.FEQ\Desktop\nxt\china\.\lib/IMU-lib.nxc"
6	233	213		mov __IMU_ReadAcceleration_7qG2_currAccl_7qG2_000.ax_h, __ArrHelper__IMU_ReadAcceleration_98_0
6	233	215	#line 233 "C:\Users\Administrator.FEQ\Desktop\nxt\china\.\lib/IMU-lib.nxc"
6	233	215	#line 233 "C:\Users\Administrator.FEQ\Desktop\nxt\china\.\lib/IMU-lib.nxc"
6	233	215	#line 233 "C:\Users\Administrator.FEQ\Desktop\nxt\china\.\lib/IMU-lib.nxc"
6	234	215		set __signed_stack_001IMU_ReadAcceleration, 2
6	233	218	#line 233 "C:\Users\Administrator.FEQ\Desktop\nxt\china\.\lib/IMU-lib.nxc"
6	233	218	#line 233 "C:\Users\Administrator.FEQ\Desktop\nxt\china\.\lib/IMU-lib.nxc"
6	234	218		index __ArrHelper__IMU_ReadAcceleration_98_0, __IMU_ReadAcceleration_7qG2_buf_7qG2_000, __signed_stack_001IMU_ReadAcceleration
6	233	222	#line 233 "C:\Users\Administrator.FEQ\Desktop\nxt\china\.\lib/IMU-lib.nxc"
6	234	222		mov __IMU_ReadAcceleration_7qG2_currAccl_7qG2_000.ay_l, __ArrHelper__IMU_ReadAcceleration_98_0
6	234	224	#line 234 "C:\Users\Administrator.FEQ\Desktop\nxt\china\.\lib/IMU-lib.nxc"
6	234	224	#line 234 "C:\Users\Administrator.FEQ\Desktop\nxt\china\.\lib/IMU-lib.nxc"
6	234	224	#line 234 "C:\Users\Administrator.FEQ\Desktop\nxt\china\.\lib/IMU-lib.nxc"
6	235	224		set __signed_stack_001IMU_ReadAcceleration, 3
6	234	227	#line 234 "C:\Users\Administrator.FEQ\Desktop\nxt\china\.\lib/IMU-lib.nxc"
6	234	227	#line 234 "C:\Users\Administrator.FEQ\Desktop\nxt\china\.\lib/IMU-lib.nxc"
6	235	227		index __ArrHelper__IMU_ReadAcceleration_98_0, __IMU_ReadAcceleration_7qG2_buf_7qG2_000, __signed_stack_001IMU_ReadAcceleration
6	234	231	#line 234 "C:\Users\Administrator.FEQ\Desktop\nxt\china\.\lib/IMU-lib.nxc"
6	235	231		mov __IMU_ReadAcceleration_7qG2_currAccl_7qG2_000.ay_h, __ArrHelper__IMU_ReadAcceleration_98_0
6	235	233	#line 235 "C:\Users\Administrator.FEQ\Desktop\nxt\china\.\lib/IMU-lib.nxc"
6	235	233	#line 235 "C:\Users\Administrator.FEQ\Desktop\nxt\china\.\lib/IMU-lib.nxc"
6	235	233	#line 235 "C:\Users\Administrator.FEQ\Desktop\nxt\china\.\lib/IMU-lib.nxc"
6	236	233		set __signed_stack_001IMU_ReadAcceleration, 4
6	235	236	#line 235 "C:\Users\Administrator.FEQ\Desktop\nxt\china\.\lib/IMU-lib.nxc"
6	235	236	#line 235 "C:\Users\Administrator.FEQ\Desktop\nxt\china\.\lib/IMU-lib.nxc"
6	236	236		index __ArrHelper__IMU_ReadAcceleration_98_0, __IMU_ReadAcceleration_7qG2_buf_7qG2_000, __signed_stack_001IMU_ReadAcceleration
6	235	240	#line 235 "C:\Users\Administrator.FEQ\Desktop\nxt\china\.\lib/IMU-lib.nxc"
6	236	240		mov __IMU_ReadAcceleration_7qG2_currAccl_7qG2_000.az_l, __ArrHelper__IMU_ReadAcceleration_98_0
6	236	242	#line 236 "C:\Users\Administrator.FEQ\Desktop\nxt\china\.\lib/IMU-lib.nxc"
6	236	242	#line 236 "C:\Users\Administrator.FEQ\Desktop\nxt\china\.\lib/IMU-lib.nxc"
6	236	242	#line 236 "C:\Users\Administrator.FEQ\Desktop\nxt\china\.\lib/IMU-lib.nxc"
6	237	242		set __signed_stack_001IMU_ReadAcceleration, 5
6	236	245	#line 236 "C:\Users\Administrator.FEQ\Desktop\nxt\china\.\lib/IMU-lib.nxc"
6	236	245	#line 236 "C:\Users\Administrator.FEQ\Desktop\nxt\china\.\lib/IMU-lib.nxc"
6	237	245		index __ArrHelper__IMU_ReadAcceleration_98_0, __IMU_ReadAcceleration_7qG2_buf_7qG2_000, __signed_stack_001IMU_ReadAcceleration
6	236	249	#line 236 "C:\Users\Administrator.FEQ\Desktop\nxt\china\.\lib/IMU-lib.nxc"
6	237	249		mov __IMU_ReadAcceleration_7qG2_currAccl_7qG2_000.az_h, __ArrHelper__IMU_ReadAcceleration_98_0
6	238	251	#line 238 "C:\Users\Administrator.FEQ\Desktop\nxt\china\.\lib/IMU-lib.nxc"
6	238	251	#line 238 "C:\Users\Administrator.FEQ\Desktop\nxt\china\.\lib/IMU-lib.nxc"
6	238	251	#line 238 "C:\Users\Administrator.FEQ\Desktop\nxt\china\.\lib/IMU-lib.nxc"
6	239	251		set __signed_stack_001IMU_ReadAcceleration, 0
6	238	254	#line 238 "C:\Users\Administrator.FEQ\Desktop\nxt\china\.\lib/IMU-lib.nxc"
6	238	254	#line 238 "C:\Users\Administrator.FEQ\Desktop\nxt\china\.\lib/IMU-lib.nxc"
6	239	254		index __ArrHelper__IMU_ReadAcceleration_98_0, __IMU_ReadAcceleration_7qG2_buf_7qG2_000, __signed_stack_001IMU_ReadAcceleration
6	238	258	#line 238 "C:\Users\Administrator.FEQ\Desktop\nxt\china\.\lib/IMU-lib.nxc"
6	239	258		mov __IMU_MLBToInteger_7qG2_lsb_7qG2_000, __ArrHelper__IMU_ReadAcceleration_98_0
6	238	260	#line 238 "C:\Users\Administrator.FEQ\Desktop\nxt\china\.\lib/IMU-lib.nxc"
6	238	260	#line 238 "C:\Users\Administrator.FEQ\Desktop\nxt\china\.\lib/IMU-lib.nxc"
6	239	260		set __signed_stack_001IMU_ReadAcceleration, 1
6	238	263	#line 238 "C:\Users\Administrator.FEQ\Desktop\nxt\china\.\lib/IMU-lib.nxc"
6	238	263	#line 238 "C:\Users\Administrator.FEQ\Desktop\nxt\china\.\lib/IMU-lib.nxc"
6	239	263		index __ArrHelper__IMU_ReadAcceleration_98_0, __IMU_ReadAcceleration_7qG2_buf_7qG2_000, __signed_stack_001IMU_ReadAcceleration
6	238	267	#line 238 "C:\Users\Administrator.FEQ\Desktop\nxt\china\.\lib/IMU-lib.nxc"
6	239	267		mov __IMU_MLBToInteger_7qG2_msb_7qG2_000, __ArrHelper__IMU_ReadAcceleration_98_0
6	238	269	#line 238 "C:\Users\Administrator.FEQ\Desktop\nxt\china\.\lib/IMU-lib.nxc"
6	239	269	#line 239 "C:\Users\Administrator.FEQ\Desktop\nxt\china\.\lib/IMU-lib.nxc"
6	240	269		subcall IMU_MLBToInteger, __IMU_MLBToInteger_return
6	239	271	#line 239 "C:\Users\Administrator.FEQ\Desktop\nxt\china\.\lib/IMU-lib.nxc"
6	240	271		mov __IMU_ReadAcceleration_7qG2_currAccl_7qG2_000.ax, __D0IMU_MLBToInteger
6	239	274	#line 239 "C:\Users\Administrator.FEQ\Desktop\nxt\china\.\lib/IMU-lib.nxc"
6	239	274	#line 239 "C:\Users\Administrator.FEQ\Desktop\nxt\china\.\lib/IMU-lib.nxc"
6	239	274	#line 239 "C:\Users\Administrator.FEQ\Desktop\nxt\china\.\lib/IMU-lib.nxc"
6	240	274		set __signed_stack_001IMU_ReadAcceleration, 2
6	239	277	#line 239 "C:\Users\Administrator.FEQ\Desktop\nxt\china\.\lib/IMU-lib.nxc"
6	239	277	#line 239 "C:\Users\Administrator.FEQ\Desktop\nxt\china\.\lib/IMU-lib.nxc"
6	240	277		index __ArrHelper__IMU_ReadAcceleration_98_0, __IMU_ReadAcceleration_7qG2_buf_7qG2_000, __signed_stack_001IMU_ReadAcceleration
6	239	281	#line 239 "C:\Users\Administrator.FEQ\Desktop\nxt\china\.\lib/IMU-lib.nxc"
6	240	281		mov __IMU_MLBToInteger_7qG2_lsb_7qG2_000, __ArrHelper__IMU_ReadAcceleration_98_0
6	239	283	#line 239 "C:\Users\Administrator.FEQ\Desktop\nxt\china\.\lib/IMU-lib.nxc"
6	239	283	#line 239 "C:\Users\Administrator.FEQ\Desktop\nxt\china\.\lib/IMU-lib.nxc"
6	240	283		set __signed_stack_001IMU_ReadAcceleration, 3
6	239	286	#line 239 "C:\Users\Administrator.FEQ\Desktop\nxt\china\.\lib/IMU-lib.nxc"
6	239	286	#line 239 "C:\Users\Administrator.FEQ\Desktop\nxt\china\.\lib/IMU-lib.nxc"
6	240	286		index __ArrHelper__IMU_ReadAcceleration_98_0, __IMU_ReadAcceleration_7qG2_buf_7qG2_000, __signed_stack_001IMU_ReadAcceleration
6	239	290	#line 239 "C:\Users\Administrator.FEQ\Desktop\nxt\china\.\lib/IMU-lib.nxc"
6	240	290		mov __IMU_MLBToInteger_7qG2_msb_7qG2_000, __ArrHelper__IMU_ReadAcceleration_98_0
6	239	292	#line 239 "C:\Users\Administrator.FEQ\Desktop\nxt\china\.\lib/IMU-lib.nxc"
6	240	292	#line 240 "C:\Users\Administrator.FEQ\Desktop\nxt\china\.\lib/IMU-lib.nxc"
6	241	292		subcall IMU_MLBToInteger, __IMU_MLBToInteger_return
6	240	294	#line 240 "C:\Users\Administrator.FEQ\Desktop\nxt\china\.\lib/IMU-lib.nxc"
6	241	294		mov __IMU_ReadAcceleration_7qG2_currAccl_7qG2_000.ay, __D0IMU_MLBToInteger
6	240	297	#line 240 "C:\Users\Administrator.FEQ\Desktop\nxt\china\.\lib/IMU-lib.nxc"
6	240	297	#line 240 "C:\Users\Administrator.FEQ\Desktop\nxt\china\.\lib/IMU-lib.nxc"
6	240	297	#line 240 "C:\Users\Administrator.FEQ\Desktop\nxt\china\.\lib/IMU-lib.nxc"
6	241	297		set __signed_stack_001IMU_ReadAcceleration, 4
6	240	300	#line 240 "C:\Users\Administrator.FEQ\Desktop\nxt\china\.\lib/IMU-lib.nxc"
6	240	300	#line 240 "C:\Users\Administrator.FEQ\Desktop\nxt\china\.\lib/IMU-lib.nxc"
6	241	300		index __ArrHelper__IMU_ReadAcceleration_98_0, __IMU_ReadAcceleration_7qG2_buf_7qG2_000, __signed_stack_001IMU_ReadAcceleration
6	240	304	#line 240 "C:\Users\Administrator.FEQ\Desktop\nxt\china\.\lib/IMU-lib.nxc"
6	241	304		mov __IMU_MLBToInteger_7qG2_lsb_7qG2_000, __ArrHelper__IMU_ReadAcceleration_98_0
6	240	306	#line 240 "C:\Users\Administrator.FEQ\Desktop\nxt\china\.\lib/IMU-lib.nxc"
6	240	306	#line 240 "C:\Users\Administrator.FEQ\Desktop\nxt\china\.\lib/IMU-lib.nxc"
6	241	306		set __signed_stack_001IMU_ReadAcceleration, 5
6	240	309	#line 240 "C:\Users\Administrator.FEQ\Desktop\nxt\china\.\lib/IMU-lib.nxc"
6	240	309	#line 240 "C:\Users\Administrator.FEQ\Desktop\nxt\china\.\lib/IMU-lib.nxc"
6	241	309		index __ArrHelper__IMU_ReadAcceleration_98_0, __IMU_ReadAcceleration_7qG2_buf_7qG2_000, __signed_stack_001IMU_ReadAcceleration
6	240	313	#line 240 "C:\Users\Administrator.FEQ\Desktop\nxt\china\.\lib/IMU-lib.nxc"
6	241	313		mov __IMU_MLBToInteger_7qG2_msb_7qG2_000, __ArrHelper__IMU_ReadAcceleration_98_0
6	240	315	#line 240 "C:\Users\Administrator.FEQ\Desktop\nxt\china\.\lib/IMU-lib.nxc"
6	241	315	#line 241 "C:\Users\Administrator.FEQ\Desktop\nxt\china\.\lib/IMU-lib.nxc"
6	242	315		subcall IMU_MLBToInteger, __IMU_MLBToInteger_return
6	241	317	#line 241 "C:\Users\Administrator.FEQ\Desktop\nxt\china\.\lib/IMU-lib.nxc"
6	242	317		mov __IMU_ReadAcceleration_7qG2_currAccl_7qG2_000.az, __D0IMU_MLBToInteger
6	241	320	#line 241 "C:\Users\Administrator.FEQ\Desktop\nxt\china\.\lib/IMU-lib.nxc"
6	241	320	#line 241 "C:\Users\Administrator.FEQ\Desktop\nxt\china\.\lib/IMU-lib.nxc"
6	242	320	#line 242 "C:\Users\Administrator.FEQ\Desktop\nxt\china\.\lib/IMU-lib.nxc"
6	243	320		jmp __NXC_Label_791
6	243	322	#line 243 "C:\Users\Administrator.FEQ\Desktop\nxt\china\.\lib/IMU-lib.nxc"
6	244	322		set __IMU_ReadAcceleration_7qG2_currAccl_7qG2_000.ax, 0
6	243	325	#line 243 "C:\Users\Administrator.FEQ\Desktop\nxt\china\.\lib/IMU-lib.nxc"
6	243	325	#line 243 "C:\Users\Administrator.FEQ\Desktop\nxt\china\.\lib/IMU-lib.nxc"
6	244	325	#line 244 "C:\Users\Administrator.FEQ\Desktop\nxt\china\.\lib/IMU-lib.nxc"
6	245	325		set __IMU_ReadAcceleration_7qG2_currAccl_7qG2_000.ay, 0
6	244	328	#line 244 "C:\Users\Administrator.FEQ\Desktop\nxt\china\.\lib/IMU-lib.nxc"
6	244	328	#line 244 "C:\Users\Administrator.FEQ\Desktop\nxt\china\.\lib/IMU-lib.nxc"
6	245	328	#line 245 "C:\Users\Administrator.FEQ\Desktop\nxt\china\.\lib/IMU-lib.nxc"
6	246	328		set __IMU_ReadAcceleration_7qG2_currAccl_7qG2_000.az, 0
6	245	331	#line 245 "C:\Users\Administrator.FEQ\Desktop\nxt\china\.\lib/IMU-lib.nxc"
6	245	331	#line 245 "C:\Users\Administrator.FEQ\Desktop\nxt\china\.\lib/IMU-lib.nxc"
6	246	331	#line 246 "C:\Users\Administrator.FEQ\Desktop\nxt\china\.\lib/IMU-lib.nxc"
6	247	331	#line 247 "C:\Users\Administrator.FEQ\Desktop\nxt\china\.\lib/IMU-lib.nxc"
6	248	331		mov __IMU_ReadAcceleration_7qG2_currAccl_7qG2_000.error, __IMU_ReadAcceleration_7qG2_e_7qG2_000
6	247	333	#line 247 "C:\Users\Administrator.FEQ\Desktop\nxt\china\.\lib/IMU-lib.nxc"
6	247	333	#line 247 "C:\Users\Administrator.FEQ\Desktop\nxt\china\.\lib/IMU-lib.nxc"
6	249	333	#line 249 "C:\Users\Administrator.FEQ\Desktop\nxt\china\.\lib/IMU-lib.nxc"
6	250	333		subret __IMU_ReadAcceleration_return
7	277	0	#line 277 "C:\Users\Administrator.FEQ\Desktop\nxt\china\.\lib/IMU-lib.nxc"
7	278	0		mov __SetSensorLowspeed_7qG2_port_7qG2_000_inline_IMU_Init, __IMU_Init_7qG2_port_7qG2_000
7	277	2	#line 277 "C:\Users\Administrator.FEQ\Desktop\nxt\china\.\lib/IMU-lib.nxc"
7	278	2	#line 278 "C:\Users\Administrator.FEQ\Desktop\nxt\china\.\lib/IMU-lib.nxc"
7	279	2		mov __SetSensorLowspeed_7qG2_bIsPowered_7qG2_000_inline_IMU_Init, __constVal1
7	3758	4	#line 3758 "NXCDefs.h"
7	3759	4		mov __SetSensorType_7qG2_port_7qG2_000_inline_SetSensorLowspeed_inline_IMU_Init, __SetSensorLowspeed_7qG2_port_7qG2_000_inline_IMU_Init
7	3758	6	#line 3758 "NXCDefs.h"
7	3758	6	#line 3758 "NXCDefs.h"
7	3759	6		mov __DU0SetSensorLowspeed_inline_IMU_Init, __SetSensorLowspeed_7qG2_bIsPowered_7qG2_000_inline_IMU_Init
7	3758	8	#line 3758 "NXCDefs.h"
7	3759	8		tst 5, __zfSetSensorLowspeed_inline_IMU_Init, __DU0SetSensorLowspeed_inline_IMU_Init
7	3758	11	#line 3758 "NXCDefs.h"
7	3759	11		brtst 4, __005__NXC_Label_36, __zfSetSensorLowspeed_inline_IMU_Init
7	3758	14	#line 3758 "NXCDefs.h"
7	3759	14		set __D0SetSensorLowspeed_inline_IMU_Init, 11
7	3758	17	#line 3758 "NXCDefs.h"
7	3759	17		jmp __005__NXC_Label_37
7	3758	19	#line 3758 "NXCDefs.h"
7	3759	19		set __D0SetSensorLowspeed_inline_IMU_Init, 10
7	3758	22	#line 3758 "NXCDefs.h"
7	3759	22		mov __SetSensorType_7qG2_type_7qG2_000_inline_SetSensorLowspeed_inline_IMU_Init, __D0SetSensorLowspeed_inline_IMU_Init
7	3663	24	#line 3663 "NXCDefs.h"
7	3664	24		setin __SetSensorType_7qG2_type_7qG2_000_inline_SetSensorLowspeed_inline_IMU_Init, __SetSensorType_7qG2_port_7qG2_000_inline_SetSensorLowspeed_inline_IMU_Init, 0
7	3663	28	#line 3663 "NXCDefs.h"
7	3759	28	#line 3759 "NXCDefs.h"
7	3759	28	#line 3759 "NXCDefs.h"
7	3760	28		mov __SetSensorMode_7qG2_port_7qG2_000_inline_SetSensorLowspeed_inline_IMU_Init, __SetSensorLowspeed_7qG2_port_7qG2_000_inline_IMU_Init
7	3759	30	#line 3759 "NXCDefs.h"
7	3759	30	#line 3759 "NXCDefs.h"
7	3760	30		set __SetSensorMode_7qG2_mode_7qG2_000_inline_SetSensorLowspeed_inline_IMU_Init, 0
7	3759	33	#line 3759 "NXCDefs.h"
7	3676	33	#line 3676 "NXCDefs.h"
7	3677	33		setin __SetSensorMode_7qG2_mode_7qG2_000_inline_SetSensorLowspeed_inline_IMU_Init, __SetSensorMode_7qG2_port_7qG2_000_inline_SetSensorLowspeed_inline_IMU_Init, 1
7	3676	37	#line 3676 "NXCDefs.h"
7	3760	37	#line 3760 "NXCDefs.h"
7	3760	37	#line 3760 "NXCDefs.h"
7	3761	37		mov __ResetSensor_7qG2_port_7qG2_000_inline_SetSensorLowspeed_inline_IMU_Init, __SetSensorLowspeed_7qG2_port_7qG2_000_inline_IMU_Init
7	3760	39	#line 3760 "NXCDefs.h"
7	3694	39	#line 3694 "NXCDefs.h"
7	3695	39	#pragma macro 4
7	3695	39		acquire __ResetSensorMutex
7	3695	40		mov __ResetSensorPort, __ResetSensor_7qG2_port_7qG2_000_inline_SetSensorLowspeed_inline_IMU_Init
7	3695	42		subcall __ResetSensorSubroutine, ____ResetSensorSubroutine_return
7	3695	44		release __ResetSensorMutex
7	6478	45	#line 6478 "NXCDefs.h"
7	3694	45	#line 3694 "NXCDefs.h"
7	3761	45	#line 3761 "NXCDefs.h"
7	278	45	#line 278 "C:\Users\Administrator.FEQ\Desktop\nxt\china\.\lib/IMU-lib.nxc"
7	280	45	#line 280 "C:\Users\Administrator.FEQ\Desktop\nxt\china\.\lib/IMU-lib.nxc"
7	281	45		subret __IMU_Init_return
8	6	0	#line 6 "C:\Users\Administrator.FEQ\Desktop\nxt\china\testing.nxc"
8	7	0		set __IMU_Init_7qG2_port_7qG2_000, 0
8	6	3	#line 6 "C:\Users\Administrator.FEQ\Desktop\nxt\china\testing.nxc"
8	7	3	#line 7 "C:\Users\Administrator.FEQ\Desktop\nxt\china\testing.nxc"
8	8	3		subcall IMU_Init, __IMU_Init_return
8	7	5	#line 7 "C:\Users\Administrator.FEQ\Desktop\nxt\china\testing.nxc"
8	7	5	#line 7 "C:\Users\Administrator.FEQ\Desktop\nxt\china\testing.nxc"
8	8	5		set __IMU_SendCommand_7qG2_port_7qG2_000, 0
8	7	8	#line 7 "C:\Users\Administrator.FEQ\Desktop\nxt\china\testing.nxc"
8	7	8	#line 7 "C:\Users\Administrator.FEQ\Desktop\nxt\china\testing.nxc"
8	8	8		set __IMU_SendCommand_7qG2_i2cAddr_7qG2_000, 34
8	7	11	#line 7 "C:\Users\Administrator.FEQ\Desktop\nxt\china\testing.nxc"
8	7	11	#line 7 "C:\Users\Administrator.FEQ\Desktop\nxt\china\testing.nxc"
8	8	11		set __IMU_SendCommand_7qG2_cmd_7qG2_000, 52
8	7	14	#line 7 "C:\Users\Administrator.FEQ\Desktop\nxt\china\testing.nxc"
8	8	14	#line 8 "C:\Users\Administrator.FEQ\Desktop\nxt\china\testing.nxc"
8	9	14		subcall IMU_SendCommand, __IMU_SendCommand_return
8	8	16	#line 8 "C:\Users\Administrator.FEQ\Desktop\nxt\china\testing.nxc"
8	8	16	#line 8 "C:\Users\Administrator.FEQ\Desktop\nxt\china\testing.nxc"
8	9	16		set __Wait_7qG2_ms_7qG2_000_inline_init, 100
8	8	19	#line 8 "C:\Users\Administrator.FEQ\Desktop\nxt\china\testing.nxc"
8	7921	19	#line 7921 "NXCDefs.h"
8	7922	19		wait2 NA, __Wait_7qG2_ms_7qG2_000_inline_init
8	7921	22	#line 7921 "NXCDefs.h"
8	9	22	#line 9 "C:\Users\Administrator.FEQ\Desktop\nxt\china\testing.nxc"
8	11	22	#line 11 "C:\Users\Administrator.FEQ\Desktop\nxt\china\testing.nxc"
8	12	22		subret __init_return
9	58	0	#line 58 "C:\Users\Administrator.FEQ\Desktop\nxt\china\testing.nxc"
9	59	0		subret ____initialize_global_data_return
#CLUMPS
Clump	Name	Offset	File
0	main	0	C:\Users\Administrator.FEQ\Desktop\nxt\china\testing.nxc
1	__ResetSensorSubroutine	268	NXTDefs.h
2	__ReadLSBytesVar	281	NXTDefs.h
3	fopen	381	NXCDefs.h
4	IMU_MLBToInteger	463	C:\Users\Administrator.FEQ\Desktop\nxt\china\.\lib/IMU-lib.nxc
5	IMU_SendCommand	495	C:\Users\Administrator.FEQ\Desktop\nxt\china\.\lib/IMU-lib.nxc
6	IMU_ReadAcceleration	579	C:\Users\Administrator.FEQ\Desktop\nxt\china\.\lib/IMU-lib.nxc
7	IMU_Init	914	C:\Users\Administrator.FEQ\Desktop\nxt\china\.\lib/IMU-lib.nxc
8	init	961	C:\Users\Administrator.FEQ\Desktop\nxt\china\testing.nxc
9	__initialize_global_data	985	C:\Users\Administrator.FEQ\Desktop\nxt\china\testing.nxc
