#SYMBOLS
Index	Identifier	Type	Flag	Data	Size	RefCount
0	__D0fclose_inline_saveCalibratedValues	6	1	0	4	2
1	__D0fgets_inline_readCalibratedValues	6	1	4	4	4
2	__DU0SetSensorLight_inline_main	5	1	8	4	20
3	__D0fclose_inline_readCalibratedValues	6	1	12	4	2
4	__signed_stack_002calibrateSensors	6	1	16	4	6
5	__signed_stack_001fopen	6	1	20	4	2
6	__D0fputs_inline_saveCalibratedValues	6	1	24	4	68
7	__signed_stack_001calibrateSensors	6	1	28	4	36
8	__D0SetSensorLight_inline_main	6	1	32	4	8
9	__D0fopen	6	1	36	4	4
10	__DU0fopen	5	1	40	4	3
11	__SPTArgsMutex	9	0	44	4	4
12	__D0calibrateSensors	6	1	48	4	51
13	__D0saveCalibratedValues	6	1	52	4	20
14	__D0startEngine	6	1	56	4	125
15	__D0main	6	1	60	4	50
16	__D0readCalibratedValues	6	1	64	4	6
17	__signed_stack_001fputs_inline_saveCalibratedValues	6	1	68	4	16
18	__signed_stack_001atoi_inline_readCalibratedValues	6	1	72	4	4
19	__signed_stack_002startEngine	6	1	76	4	6
20	__signed_stack_003startEngine	6	1	80	4	4
21	__fopen_7qG2_fsize_7qG2_000	5	1	84	4	4
22	__Wait_7qG2_ms_7qG2_000_inline_calibrateSensors	5	1	88	4	4
23	__fopen_default_size	5	0	92	4	1
24	__constVal37632	6	0	96	4	1
25	__signed_stack_001startEngine	6	1	100	4	60
26	__signed_stack_001readCalibratedValues	6	1	104	4	2
27	__signed_stack_002readCalibratedValues	6	1	108	4	2
28	__signed_stack_001main	6	1	112	4	22
29	__signed_stack_002main	6	1	116	4	12
30	__signed_stack_002saveCalibratedValues	6	1	120	4	2
31	__unsigned_stack_001saveCalibratedValues	5	1	124	4	2
32	__unsigned_stack_001readCalibratedValues	5	1	128	4	2
33	__signed_stack_001saveCalibratedValues	6	1	132	4	2
34	__PointOutMutex	9	0	136	4	10
35	__TextOutMutex	9	0	140	4	24
36	__FCMutex	9	0	144	4	4
37	__RBtnMutex	9	0	148	4	14
38	zwart4	4	1	152	2	2
39	__fputs_7qG2_cnt_7qG2_000_inline_saveCalibratedValues	4	1	154	2	16
40	wit1	4	1	156	2	2
41	zwart1	4	1	158	2	2
42	zwart2	4	1	160	2	2
43	zwart3	4	1	162	2	2
44	__RLSMaxBytes	3	1	164	2	5
45	wit4	4	1	166	2	2
46	__RLSReturn	3	1	168	2	6
47	__RLSByteCount	3	1	170	2	4
48	wit2	4	1	172	2	2
49	wit3	4	1	174	2	2
50	__constVal200	4	0	176	2	10
51	gsensor2	4	1	178	2	9
52	__fopen_7qG2_result_7qG2_000	4	1	180	2	5
53	gsensor1	4	1	182	2	7
54	gsensor4	4	1	184	2	6
55	__fgets_7qG2_num_7qG2_000_inline_readCalibratedValues	4	1	186	2	8
56	gsensor3	4	1	188	2	9
57	__constVal1	2	0	190	1	26
58	__fopen_7qG2_handle_7qG2_000	1	1	191	1	5
59	__constVal0	2	1	192	1	32
60	__fopen_return	1	1	193	1	5
61	__constVal32	2	0	194	1	39
62	__SetSensorLight_7qG2_port_7qG2_000_inline_main	1	1	195	1	20
63	__SetSensorLight_7qG2_bActive_7qG2_000_inline_main	1	1	196	1	8
64	____initialize_global_data_return	1	1	197	1	3
65	__constVal96	2	0	198	1	13
66	__constVal63	2	0	199	1	13
67	__SetSensorMode_7qG2_mode_7qG2_000_inline_SetSensorLight_inline_main	1	1	200	1	8
68	__ResetSensor_7qG2_port_7qG2_000_inline_SetSensorLight_inline_main	1	1	201	1	4
69	__SetSensorMode_7qG2_port_7qG2_000_inline_SetSensorLight_inline_main	1	1	202	1	8
70	__SetSensorType_7qG2_port_7qG2_000_inline_SetSensorLight_inline_main	1	1	203	1	8
71	__SetSensorType_7qG2_type_7qG2_000_inline_SetSensorLight_inline_main	1	1	204	1	8
72	__startEngine_return	1	1	205	1	3
73	__constValNeg1	2	0	206	1	8
74	__fclose_7qG2_handle_7qG2_000_inline_saveCalibratedValues	1	1	207	1	2
75	__fputs_7qG2_handle_7qG2_000_inline_saveCalibratedValues	1	1	208	1	8
76	__saveCalibratedValues_return	1	1	209	1	4
77	__saveCalibratedValues_7qG2_file_7qG2_000	1	1	210	1	19
78	__fclose_7qG2_handle_7qG2_000_inline_readCalibratedValues	1	1	211	1	2
79	__calibrateSensors_return	1	1	212	1	3
80	__fgets_7qG2_handle_7qG2_000_inline_readCalibratedValues	1	1	213	1	4
81	__readCalibratedValues_return	1	1	214	1	3
82	__readCalibratedValues_7qG2_file_7qG2_000	1	1	215	1	11
83	____readStringLine_return	1	1	216	1	1
84	__RLSReturnAddress	1	1	217	1	5
85	__constVal7	2	0	218	1	13
86	__FReadTmpByte	1	1	219	1	3
87	__constVal2	2	0	220	1	14
88	__constVal10	2	0	221	1	1
89	__constVal13	2	0	222	1	1
90	__PFTmp	1	1	223	1	1
91	__constVal3	2	0	224	1	5
92	__ResetSensorTmp	1	1	225	1	2
93	____ResetSensorSubroutine_return	1	1	226	1	6
94	__ResetSensorPort	1	1	227	1	6
95	__FDArgs	8	0	2	8	3
96	__FDArgs.Result	3	1	228	2	3
97	__FDArgs.Filename	7	0	230	4	3
98	__FDArgs.Filename.Filename_type	1	0	0	1	0
99	__FReadArgs	8	0	4	12	9
100	__FReadArgs.Result	3	1	232	2	9
101	__FReadArgs.FileHandle	1	1	234	1	9
102	__FReadArgs.Buffer	7	0	236	4	9
103	__FReadArgs.Buffer.Buffer_type	1	0	0	1	0
104	__FReadArgs.Length	5	1	240	4	9
105	__FWriteArgs	8	0	4	12	56
106	__FWriteArgs.Result	3	1	244	2	56
107	__FWriteArgs.FileHandle	1	1	246	1	56
108	__FWriteArgs.Buffer	7	0	248	4	56
109	__FWriteArgs.Buffer.Buffer_type	1	0	0	1	0
110	__FWriteArgs.Length	5	1	252	4	56
111	__SPTArgs	8	0	5	8	12
112	__SPTArgs.Result	2	1	256	1	12
113	__SPTArgs.Frequency	3	1	258	2	12
114	__SPTArgs.Duration	3	1	260	2	12
115	__SPTArgs.Loop	1	1	262	1	12
116	__SPTArgs.Volume	1	1	263	1	12
117	__PointOutArgs	8	0	3	12	20
118	__PointOutArgs.Result	2	1	264	1	20
119	__PointOutArgs.Location	8	0	2	4	20
120	__PointOutArgs.Location.X	4	1	268	2	20
121	__PointOutArgs.Location.Y	4	1	270	2	20
122	__PointOutArgs.Options	5	1	272	4	20
123	__TextOutArgs	8	0	4	16	72
124	__TextOutArgs.Result	2	1	276	1	72
125	__TextOutArgs.Location	8	0	2	4	72
126	__TextOutArgs.Location.X	4	1	280	2	72
127	__TextOutArgs.Location.Y	4	1	282	2	72
128	__TextOutArgs.Text	7	0	284	4	72
129	__TextOutArgs.Text.Text_type	1	0	0	1	0
130	__TextOutArgs.Options	5	1	288	4	72
131	__RBtnArgs	8	0	5	8	28
132	__RBtnArgs.Result	2	1	292	1	28
133	__RBtnArgs.Index	1	1	293	1	28
134	__RBtnArgs.Pressed	1	1	294	1	28
135	__RBtnArgs.Count	1	1	295	1	28
136	__RBtnArgs.Reset	1	1	296	1	28
137	__FOArgs	8	0	4	12	15
138	__FOArgs.Result	3	1	300	2	15
139	__FOArgs.FileHandle	1	1	302	1	15
140	__FOArgs.Filename	7	0	304	4	15
141	__FOArgs.Filename.Filename_type	1	0	0	1	0
142	__FOArgs.Length	5	1	308	4	15
143	__FCArgs	8	0	2	4	6
144	__FCArgs.Result	3	1	312	2	6
145	__FCArgs.FileHandle	1	1	314	1	6
146	__constStr0014	7	0	316	4	1
147	__constStr0014.__constStr0014_type	1	1	0	1	0
148	__strbufmain	7	0	318	4	4
149	__strbufmain.__strbufmain_type	1	0	0	1	0
150	__constStr0015	7	0	320	4	1
151	__constStr0015.__constStr0015_type	1	1	0	1	0
152	__constStr0013	7	0	322	4	1
153	__constStr0013.__constStr0013_type	1	1	0	1	0
154	__atoi_7qG2_str_7qG2_000_inline_readCalibratedValues	7	0	324	4	8
155	__atoi_7qG2_str_7qG2_000_inline_readCalibratedValues.__atoi_7qG2_str_7qG2_000_inline_readCalibratedValues_type	1	0	0	1	0
156	__OUT_BC	7	0	326	4	1
157	__OUT_BC.__OUT_BC_type	1	0	0	1	0
158	__strbuffopen	7	0	328	4	4
159	__strbuffopen.__strbuffopen_type	1	0	0	1	0
160	__ArrHelper__startEngine_244_1	7	0	330	4	4
161	__ArrHelper__startEngine_244_1.__ArrHelper__startEngine_244_1_type	1	0	0	1	0
162	__ArrHelper__startEngine_244_2	7	0	332	4	4
163	__ArrHelper__startEngine_244_2.__ArrHelper__startEngine_244_2_type	1	0	0	1	0
164	__ArrHelper__startEngine_244_0	7	0	334	4	2
165	__ArrHelper__startEngine_244_0.__ArrHelper__startEngine_244_0_type	1	0	0	1	0
166	__constStr0018	7	0	336	4	1
167	__constStr0018.__constStr0018_type	1	1	0	1	0
168	__constStr0017	7	0	338	4	1
169	__constStr0017.__constStr0017_type	1	1	0	1	0
170	__ArrHelper__startEngine_244_3	7	0	340	4	4
171	__ArrHelper__startEngine_244_3.__ArrHelper__startEngine_244_3_type	1	0	0	1	0
172	__strbufcalibrateSensors	7	0	342	4	6
173	__strbufcalibrateSensors.__strbufcalibrateSensors_type	1	0	0	1	0
174	__constStr0016	7	0	344	4	3
175	__constStr0016.__constStr0016_type	1	1	0	1	0
176	__ArrHelper__startEngine_244_6	7	0	346	4	2
177	__ArrHelper__startEngine_244_6.__ArrHelper__startEngine_244_6_type	1	0	0	1	0
178	__ArrHelper__startEngine_244_4	7	0	348	4	4
179	__ArrHelper__startEngine_244_4.__ArrHelper__startEngine_244_4_type	1	0	0	1	0
180	__ArrHelper__startEngine_244_5	7	0	350	4	4
181	__ArrHelper__startEngine_244_5.__ArrHelper__startEngine_244_5_type	1	0	0	1	0
182	__RLSBuffer	7	0	352	4	2
183	__RLSBuffer.__RLSBuffer_type	1	0	0	1	0
184	__strbuffgets_inline_readCalibratedValues	7	0	354	4	8
185	__strbuffgets_inline_readCalibratedValues.__strbuffgets_inline_readCalibratedValues_type	1	0	0	1	0
186	__RLSOutput	7	0	356	4	7
187	__RLSOutput.__RLSOutput_type	1	0	0	1	0
188	__saveCalibratedValues_7qG2_filename_7qG2_000	7	0	358	4	2
189	__saveCalibratedValues_7qG2_filename_7qG2_000.__saveCalibratedValues_7qG2_filename_7qG2_000_type	1	0	0	1	0
190	__strretvalstartEngine	7	0	360	4	8
191	__strretvalstartEngine.__strretvalstartEngine_type	1	0	0	1	0
192	__strbufatoi_inline_readCalibratedValues	7	0	362	4	8
193	__strbufatoi_inline_readCalibratedValues.__strbufatoi_inline_readCalibratedValues_type	1	0	0	1	0
194	__fopen_7qG2_mode_7qG2_000	7	0	364	4	3
195	__fopen_7qG2_mode_7qG2_000.__fopen_7qG2_mode_7qG2_000_type	1	0	0	1	0
196	__fopen_7qG2_filename_7qG2_000	7	0	366	4	5
197	__fopen_7qG2_filename_7qG2_000.__fopen_7qG2_filename_7qG2_000_type	1	0	0	1	0
198	__constStr0006	7	0	368	4	2
199	__constStr0006.__constStr0006_type	1	1	0	1	0
200	__constStr0008	7	0	370	4	1
201	__constStr0008.__constStr0008_type	1	1	0	1	0
202	__constStr0007	7	0	372	4	2
203	__constStr0007.__constStr0007_type	1	1	0	1	0
204	__constStr0009	7	0	374	4	2
205	__constStr0009.__constStr0009_type	1	1	0	1	0
206	__strbufreadCalibratedValues	7	0	376	4	14
207	__strbufreadCalibratedValues.__strbufreadCalibratedValues_type	1	0	0	1	0
208	__strretvalreadCalibratedValues	7	0	378	4	4
209	__strretvalreadCalibratedValues.__strretvalreadCalibratedValues_type	1	0	0	1	0
210	__readCalibratedValues_7qG2_buffer_7qG2_000	7	0	380	4	12
211	__readCalibratedValues_7qG2_buffer_7qG2_000.__readCalibratedValues_7qG2_buffer_7qG2_000_type	1	0	0	1	0
212	__fgets_7qG2_str_7qG2_000_inline_readCalibratedValues	7	0	382	4	16
213	__fgets_7qG2_str_7qG2_000_inline_readCalibratedValues.__fgets_7qG2_str_7qG2_000_inline_readCalibratedValues_type	1	0	0	1	0
214	__constStr0012	7	0	384	4	1
215	__constStr0012.__constStr0012_type	1	1	0	1	0
216	__constStr0011	7	0	386	4	4
217	__constStr0011.__constStr0011_type	1	1	0	1	0
218	__constStr0010	7	0	388	4	1
219	__constStr0010.__constStr0010_type	1	1	0	1	0
220	__strbufstartEngine	7	0	390	4	14
221	__strbufstartEngine.__strbufstartEngine_type	1	0	0	1	0
222	__fputs_7qG2_str_7qG2_000_inline_saveCalibratedValues	7	0	392	4	16
223	__fputs_7qG2_str_7qG2_000_inline_saveCalibratedValues.__fputs_7qG2_str_7qG2_000_inline_saveCalibratedValues_type	1	0	0	1	0
224	__strbufsaveCalibratedValues	7	0	394	4	25
225	__strbufsaveCalibratedValues.__strbufsaveCalibratedValues_type	1	0	0	1	0
226	__strretvalsaveCalibratedValues	7	0	396	4	8
227	__strretvalsaveCalibratedValues.__strretvalsaveCalibratedValues_type	1	0	0	1	0
#SOURCES
Clump	Line	PC	Source
0	148	0	#line 148 "C:\Users\Noah\Desktop\nxt\felix\Matrix.nxc"
0	149	0		subcall __initialize_global_data, ____initialize_global_data_return
0	148	2	#line 148 "C:\Users\Noah\Desktop\nxt\felix\Matrix.nxc"
0	148	2	#line 148 "C:\Users\Noah\Desktop\nxt\felix\Matrix.nxc"
0	149	2		set __SetSensorLight_7qG2_port_7qG2_000_inline_main, 0
0	148	5	#line 148 "C:\Users\Noah\Desktop\nxt\felix\Matrix.nxc"
0	149	5	#line 149 "C:\Users\Noah\Desktop\nxt\felix\Matrix.nxc"
0	150	5		mov __SetSensorLight_7qG2_bActive_7qG2_000_inline_main, __constVal1
0	4313	7	#line 4313 "NXCDefs.h"
0	4314	7		mov __SetSensorType_7qG2_port_7qG2_000_inline_SetSensorLight_inline_main, __SetSensorLight_7qG2_port_7qG2_000_inline_main
0	4313	9	#line 4313 "NXCDefs.h"
0	4313	9	#line 4313 "NXCDefs.h"
0	4314	9		mov __DU0SetSensorLight_inline_main, __SetSensorLight_7qG2_bActive_7qG2_000_inline_main
0	4313	11	#line 4313 "NXCDefs.h"
0	4314	11		tst 5, __D0SetSensorLight_inline_main, __DU0SetSensorLight_inline_main
0	4313	14	#line 4313 "NXCDefs.h"
0	4314	14		brtst 4, __001__ASM_Label_4, __D0SetSensorLight_inline_main
0	4313	17	#line 4313 "NXCDefs.h"
0	4314	17		set __DU0SetSensorLight_inline_main, 5
0	4313	20	#line 4313 "NXCDefs.h"
0	4313	20	#line 4313 "NXCDefs.h"
0	4314	20		jmp __001__ASM_Label_5
0	4313	22	#line 4313 "NXCDefs.h"
0	4314	22		set __DU0SetSensorLight_inline_main, 6
0	4313	25	#line 4313 "NXCDefs.h"
0	4313	25	#line 4313 "NXCDefs.h"
0	4314	25		mov __SetSensorType_7qG2_type_7qG2_000_inline_SetSensorLight_inline_main, __DU0SetSensorLight_inline_main
0	4247	27	#line 4247 "NXCDefs.h"
0	4248	27		setin __SetSensorType_7qG2_type_7qG2_000_inline_SetSensorLight_inline_main, __SetSensorType_7qG2_port_7qG2_000_inline_SetSensorLight_inline_main, 0
0	4247	31	#line 4247 "NXCDefs.h"
0	4314	31	#line 4314 "NXCDefs.h"
0	4314	31	#line 4314 "NXCDefs.h"
0	4315	31		mov __SetSensorMode_7qG2_port_7qG2_000_inline_SetSensorLight_inline_main, __SetSensorLight_7qG2_port_7qG2_000_inline_main
0	4314	33	#line 4314 "NXCDefs.h"
0	4314	33	#line 4314 "NXCDefs.h"
0	4315	33		set __SetSensorMode_7qG2_mode_7qG2_000_inline_SetSensorLight_inline_main, 128
0	4314	36	#line 4314 "NXCDefs.h"
0	4260	36	#line 4260 "NXCDefs.h"
0	4261	36		setin __SetSensorMode_7qG2_mode_7qG2_000_inline_SetSensorLight_inline_main, __SetSensorMode_7qG2_port_7qG2_000_inline_SetSensorLight_inline_main, 1
0	4260	40	#line 4260 "NXCDefs.h"
0	4315	40	#line 4315 "NXCDefs.h"
0	4315	40	#line 4315 "NXCDefs.h"
0	4316	40		mov __ResetSensor_7qG2_port_7qG2_000_inline_SetSensorLight_inline_main, __SetSensorLight_7qG2_port_7qG2_000_inline_main
0	4315	42	#line 4315 "NXCDefs.h"
0	4278	42	#line 4278 "NXCDefs.h"
0	4279	42	#pragma macro 4
0	4279	42		mov __ResetSensorPort, __SetSensorLight_7qG2_port_7qG2_000_inline_main
0	4279	44		subcall __ResetSensorSubroutine, ____ResetSensorSubroutine_return
0	6162	46	#line 6162 "NXCDefs.h"
0	4278	46	#line 4278 "NXCDefs.h"
0	4316	46	#line 4316 "NXCDefs.h"
0	149	46	#line 149 "C:\Users\Noah\Desktop\nxt\felix\Matrix.nxc"
0	149	46	#line 149 "C:\Users\Noah\Desktop\nxt\felix\Matrix.nxc"
0	150	46		set __SetSensorLight_7qG2_port_7qG2_000_inline_main, 1
0	149	49	#line 149 "C:\Users\Noah\Desktop\nxt\felix\Matrix.nxc"
0	150	49	#line 150 "C:\Users\Noah\Desktop\nxt\felix\Matrix.nxc"
0	151	49		mov __SetSensorLight_7qG2_bActive_7qG2_000_inline_main, __constVal1
0	4313	51	#line 4313 "NXCDefs.h"
0	4314	51		mov __SetSensorType_7qG2_port_7qG2_000_inline_SetSensorLight_inline_main, __SetSensorLight_7qG2_port_7qG2_000_inline_main
0	4313	53	#line 4313 "NXCDefs.h"
0	4313	53	#line 4313 "NXCDefs.h"
0	4314	53		mov __DU0SetSensorLight_inline_main, __SetSensorLight_7qG2_bActive_7qG2_000_inline_main
0	4313	55	#line 4313 "NXCDefs.h"
0	4314	55		tst 5, __D0SetSensorLight_inline_main, __DU0SetSensorLight_inline_main
0	4313	58	#line 4313 "NXCDefs.h"
0	4314	58		brtst 4, __002__ASM_Label_4, __D0SetSensorLight_inline_main
0	4313	61	#line 4313 "NXCDefs.h"
0	4314	61		set __DU0SetSensorLight_inline_main, 5
0	4313	64	#line 4313 "NXCDefs.h"
0	4313	64	#line 4313 "NXCDefs.h"
0	4314	64		jmp __002__ASM_Label_5
0	4313	66	#line 4313 "NXCDefs.h"
0	4314	66		set __DU0SetSensorLight_inline_main, 6
0	4313	69	#line 4313 "NXCDefs.h"
0	4313	69	#line 4313 "NXCDefs.h"
0	4314	69		mov __SetSensorType_7qG2_type_7qG2_000_inline_SetSensorLight_inline_main, __DU0SetSensorLight_inline_main
0	4247	71	#line 4247 "NXCDefs.h"
0	4248	71		setin __SetSensorType_7qG2_type_7qG2_000_inline_SetSensorLight_inline_main, __SetSensorType_7qG2_port_7qG2_000_inline_SetSensorLight_inline_main, 0
0	4247	75	#line 4247 "NXCDefs.h"
0	4314	75	#line 4314 "NXCDefs.h"
0	4314	75	#line 4314 "NXCDefs.h"
0	4315	75		mov __SetSensorMode_7qG2_port_7qG2_000_inline_SetSensorLight_inline_main, __SetSensorLight_7qG2_port_7qG2_000_inline_main
0	4314	77	#line 4314 "NXCDefs.h"
0	4314	77	#line 4314 "NXCDefs.h"
0	4315	77		set __SetSensorMode_7qG2_mode_7qG2_000_inline_SetSensorLight_inline_main, 128
0	4314	80	#line 4314 "NXCDefs.h"
0	4260	80	#line 4260 "NXCDefs.h"
0	4261	80		setin __SetSensorMode_7qG2_mode_7qG2_000_inline_SetSensorLight_inline_main, __SetSensorMode_7qG2_port_7qG2_000_inline_SetSensorLight_inline_main, 1
0	4260	84	#line 4260 "NXCDefs.h"
0	4315	84	#line 4315 "NXCDefs.h"
0	4315	84	#line 4315 "NXCDefs.h"
0	4316	84		mov __ResetSensor_7qG2_port_7qG2_000_inline_SetSensorLight_inline_main, __SetSensorLight_7qG2_port_7qG2_000_inline_main
0	4315	86	#line 4315 "NXCDefs.h"
0	4278	86	#line 4278 "NXCDefs.h"
0	4279	86	#pragma macro 4
0	4279	86		mov __ResetSensorPort, __SetSensorLight_7qG2_port_7qG2_000_inline_main
0	4279	88		subcall __ResetSensorSubroutine, ____ResetSensorSubroutine_return
0	6225	90	#line 6225 "NXCDefs.h"
0	4278	90	#line 4278 "NXCDefs.h"
0	4316	90	#line 4316 "NXCDefs.h"
0	150	90	#line 150 "C:\Users\Noah\Desktop\nxt\felix\Matrix.nxc"
0	150	90	#line 150 "C:\Users\Noah\Desktop\nxt\felix\Matrix.nxc"
0	151	90		set __SetSensorLight_7qG2_port_7qG2_000_inline_main, 2
0	150	93	#line 150 "C:\Users\Noah\Desktop\nxt\felix\Matrix.nxc"
0	151	93	#line 151 "C:\Users\Noah\Desktop\nxt\felix\Matrix.nxc"
0	152	93		mov __SetSensorLight_7qG2_bActive_7qG2_000_inline_main, __constVal1
0	4313	95	#line 4313 "NXCDefs.h"
0	4314	95		mov __SetSensorType_7qG2_port_7qG2_000_inline_SetSensorLight_inline_main, __SetSensorLight_7qG2_port_7qG2_000_inline_main
0	4313	97	#line 4313 "NXCDefs.h"
0	4313	97	#line 4313 "NXCDefs.h"
0	4314	97		mov __DU0SetSensorLight_inline_main, __SetSensorLight_7qG2_bActive_7qG2_000_inline_main
0	4313	99	#line 4313 "NXCDefs.h"
0	4314	99		tst 5, __D0SetSensorLight_inline_main, __DU0SetSensorLight_inline_main
0	4313	102	#line 4313 "NXCDefs.h"
0	4314	102		brtst 4, __003__ASM_Label_4, __D0SetSensorLight_inline_main
0	4313	105	#line 4313 "NXCDefs.h"
0	4314	105		set __DU0SetSensorLight_inline_main, 5
0	4313	108	#line 4313 "NXCDefs.h"
0	4313	108	#line 4313 "NXCDefs.h"
0	4314	108		jmp __003__ASM_Label_5
0	4313	110	#line 4313 "NXCDefs.h"
0	4314	110		set __DU0SetSensorLight_inline_main, 6
0	4313	113	#line 4313 "NXCDefs.h"
0	4313	113	#line 4313 "NXCDefs.h"
0	4314	113		mov __SetSensorType_7qG2_type_7qG2_000_inline_SetSensorLight_inline_main, __DU0SetSensorLight_inline_main
0	4247	115	#line 4247 "NXCDefs.h"
0	4248	115		setin __SetSensorType_7qG2_type_7qG2_000_inline_SetSensorLight_inline_main, __SetSensorType_7qG2_port_7qG2_000_inline_SetSensorLight_inline_main, 0
0	4247	119	#line 4247 "NXCDefs.h"
0	4314	119	#line 4314 "NXCDefs.h"
0	4314	119	#line 4314 "NXCDefs.h"
0	4315	119		mov __SetSensorMode_7qG2_port_7qG2_000_inline_SetSensorLight_inline_main, __SetSensorLight_7qG2_port_7qG2_000_inline_main
0	4314	121	#line 4314 "NXCDefs.h"
0	4314	121	#line 4314 "NXCDefs.h"
0	4315	121		set __SetSensorMode_7qG2_mode_7qG2_000_inline_SetSensorLight_inline_main, 128
0	4314	124	#line 4314 "NXCDefs.h"
0	4260	124	#line 4260 "NXCDefs.h"
0	4261	124		setin __SetSensorMode_7qG2_mode_7qG2_000_inline_SetSensorLight_inline_main, __SetSensorMode_7qG2_port_7qG2_000_inline_SetSensorLight_inline_main, 1
0	4260	128	#line 4260 "NXCDefs.h"
0	4315	128	#line 4315 "NXCDefs.h"
0	4315	128	#line 4315 "NXCDefs.h"
0	4316	128		mov __ResetSensor_7qG2_port_7qG2_000_inline_SetSensorLight_inline_main, __SetSensorLight_7qG2_port_7qG2_000_inline_main
0	4315	130	#line 4315 "NXCDefs.h"
0	4278	130	#line 4278 "NXCDefs.h"
0	4279	130	#pragma macro 4
0	4279	130		mov __ResetSensorPort, __SetSensorLight_7qG2_port_7qG2_000_inline_main
0	4279	132		subcall __ResetSensorSubroutine, ____ResetSensorSubroutine_return
0	6288	134	#line 6288 "NXCDefs.h"
0	4278	134	#line 4278 "NXCDefs.h"
0	4316	134	#line 4316 "NXCDefs.h"
0	151	134	#line 151 "C:\Users\Noah\Desktop\nxt\felix\Matrix.nxc"
0	151	134	#line 151 "C:\Users\Noah\Desktop\nxt\felix\Matrix.nxc"
0	152	134		set __SetSensorLight_7qG2_port_7qG2_000_inline_main, 3
0	151	137	#line 151 "C:\Users\Noah\Desktop\nxt\felix\Matrix.nxc"
0	153	137	#line 153 "C:\Users\Noah\Desktop\nxt\felix\Matrix.nxc"
0	154	137		mov __SetSensorLight_7qG2_bActive_7qG2_000_inline_main, __constVal1
0	4313	139	#line 4313 "NXCDefs.h"
0	4314	139		mov __SetSensorType_7qG2_port_7qG2_000_inline_SetSensorLight_inline_main, __SetSensorLight_7qG2_port_7qG2_000_inline_main
0	4313	141	#line 4313 "NXCDefs.h"
0	4313	141	#line 4313 "NXCDefs.h"
0	4314	141		mov __DU0SetSensorLight_inline_main, __SetSensorLight_7qG2_bActive_7qG2_000_inline_main
0	4313	143	#line 4313 "NXCDefs.h"
0	4314	143		tst 5, __D0SetSensorLight_inline_main, __DU0SetSensorLight_inline_main
0	4313	146	#line 4313 "NXCDefs.h"
0	4314	146		brtst 4, __004__ASM_Label_4, __D0SetSensorLight_inline_main
0	4313	149	#line 4313 "NXCDefs.h"
0	4314	149		set __DU0SetSensorLight_inline_main, 5
0	4313	152	#line 4313 "NXCDefs.h"
0	4313	152	#line 4313 "NXCDefs.h"
0	4314	152		jmp __004__ASM_Label_5
0	4313	154	#line 4313 "NXCDefs.h"
0	4314	154		set __DU0SetSensorLight_inline_main, 6
0	4313	157	#line 4313 "NXCDefs.h"
0	4313	157	#line 4313 "NXCDefs.h"
0	4314	157		mov __SetSensorType_7qG2_type_7qG2_000_inline_SetSensorLight_inline_main, __DU0SetSensorLight_inline_main
0	4247	159	#line 4247 "NXCDefs.h"
0	4248	159		setin __SetSensorType_7qG2_type_7qG2_000_inline_SetSensorLight_inline_main, __SetSensorType_7qG2_port_7qG2_000_inline_SetSensorLight_inline_main, 0
0	4247	163	#line 4247 "NXCDefs.h"
0	4314	163	#line 4314 "NXCDefs.h"
0	4314	163	#line 4314 "NXCDefs.h"
0	4315	163		mov __SetSensorMode_7qG2_port_7qG2_000_inline_SetSensorLight_inline_main, __SetSensorLight_7qG2_port_7qG2_000_inline_main
0	4314	165	#line 4314 "NXCDefs.h"
0	4314	165	#line 4314 "NXCDefs.h"
0	4315	165		set __SetSensorMode_7qG2_mode_7qG2_000_inline_SetSensorLight_inline_main, 128
0	4314	168	#line 4314 "NXCDefs.h"
0	4260	168	#line 4260 "NXCDefs.h"
0	4261	168		setin __SetSensorMode_7qG2_mode_7qG2_000_inline_SetSensorLight_inline_main, __SetSensorMode_7qG2_port_7qG2_000_inline_SetSensorLight_inline_main, 1
0	4260	172	#line 4260 "NXCDefs.h"
0	4315	172	#line 4315 "NXCDefs.h"
0	4315	172	#line 4315 "NXCDefs.h"
0	4316	172		mov __ResetSensor_7qG2_port_7qG2_000_inline_SetSensorLight_inline_main, __SetSensorLight_7qG2_port_7qG2_000_inline_main
0	4315	174	#line 4315 "NXCDefs.h"
0	4278	174	#line 4278 "NXCDefs.h"
0	4279	174	#pragma macro 4
0	4279	174		mov __ResetSensorPort, __SetSensorLight_7qG2_port_7qG2_000_inline_main
0	4279	176		subcall __ResetSensorSubroutine, ____ResetSensorSubroutine_return
0	6351	178	#line 6351 "NXCDefs.h"
0	4278	178	#line 4278 "NXCDefs.h"
0	4316	178	#line 4316 "NXCDefs.h"
0	153	178	#line 153 "C:\Users\Noah\Desktop\nxt\felix\Matrix.nxc"
0	154	178	#line 154 "C:\Users\Noah\Desktop\nxt\felix\Matrix.nxc"
0	155	178		set __D0main, 1
0	155	181	#line 155 "C:\Users\Noah\Desktop\nxt\felix\Matrix.nxc"
0	156	181		tst 5, __D0main, __D0main
0	155	184	#line 155 "C:\Users\Noah\Desktop\nxt\felix\Matrix.nxc"
0	156	184		brtst 4, __ASM_Label_798, __D0main
0	155	187	#line 155 "C:\Users\Noah\Desktop\nxt\felix\Matrix.nxc"
0	156	187		mov __signed_stack_001main, gsensor1
0	155	189	#line 155 "C:\Users\Noah\Desktop\nxt\felix\Matrix.nxc"
0	156	189	#line 156 "C:\Users\Noah\Desktop\nxt\felix\Matrix.nxc"
0	157	189		set __D0main, 0
0	156	192	#line 156 "C:\Users\Noah\Desktop\nxt\felix\Matrix.nxc"
0	157	192		cmp 4, __D0main, __signed_stack_001main, __D0main
0	157	196	#line 157 "C:\Users\Noah\Desktop\nxt\felix\Matrix.nxc"
0	158	196		brtst 4, __ASM_Label_803, __D0main
0	158	199	#line 158 "C:\Users\Noah\Desktop\nxt\felix\Matrix.nxc"
0	159	199		subcall readCalibratedValues, __readCalibratedValues_return
0	158	201	#line 158 "C:\Users\Noah\Desktop\nxt\felix\Matrix.nxc"
0	159	201	#line 159 "C:\Users\Noah\Desktop\nxt\felix\Matrix.nxc"
0	159	201	#line 159 "C:\Users\Noah\Desktop\nxt\felix\Matrix.nxc"
0	160	201		set __signed_stack_001main, 0
0	159	204	#line 159 "C:\Users\Noah\Desktop\nxt\felix\Matrix.nxc"
0	159	204	#line 159 "C:\Users\Noah\Desktop\nxt\felix\Matrix.nxc"
0	160	204		set __signed_stack_002main, 56
0	159	207	#line 159 "C:\Users\Noah\Desktop\nxt\felix\Matrix.nxc"
0	159	207	#line 159 "C:\Users\Noah\Desktop\nxt\felix\Matrix.nxc"
0	160	207		mov __D0main, gsensor1
0	160	209	#line 160 "C:\Users\Noah\Desktop\nxt\felix\Matrix.nxc"
0	161	209		acquire __TextOutMutex
0	160	210	#line 160 "C:\Users\Noah\Desktop\nxt\felix\Matrix.nxc"
0	161	210		mov __TextOutArgs.Location.X, __signed_stack_001main
0	160	212	#line 160 "C:\Users\Noah\Desktop\nxt\felix\Matrix.nxc"
0	161	212		mov __TextOutArgs.Location.Y, __signed_stack_002main
0	160	214	#line 160 "C:\Users\Noah\Desktop\nxt\felix\Matrix.nxc"
0	161	214		set __TextOutArgs.Options, 0
0	160	217	#line 160 "C:\Users\Noah\Desktop\nxt\felix\Matrix.nxc"
0	161	217		numtostr __TextOutArgs.Text, __D0main
0	160	220	#line 160 "C:\Users\Noah\Desktop\nxt\felix\Matrix.nxc"
0	161	220		syscall 13, __TextOutArgs
0	160	223	#line 160 "C:\Users\Noah\Desktop\nxt\felix\Matrix.nxc"
0	161	223		mov __D0main, __TextOutArgs.Result
0	160	225	#line 160 "C:\Users\Noah\Desktop\nxt\felix\Matrix.nxc"
0	161	225		release __TextOutMutex
0	160	226	#line 160 "C:\Users\Noah\Desktop\nxt\felix\Matrix.nxc"
0	160	226	#line 160 "C:\Users\Noah\Desktop\nxt\felix\Matrix.nxc"
0	161	226		set __signed_stack_001main, 0
0	160	229	#line 160 "C:\Users\Noah\Desktop\nxt\felix\Matrix.nxc"
0	160	229	#line 160 "C:\Users\Noah\Desktop\nxt\felix\Matrix.nxc"
0	161	229		set __signed_stack_002main, 48
0	160	232	#line 160 "C:\Users\Noah\Desktop\nxt\felix\Matrix.nxc"
0	160	232	#line 160 "C:\Users\Noah\Desktop\nxt\felix\Matrix.nxc"
0	161	232		mov __D0main, gsensor2
0	161	234	#line 161 "C:\Users\Noah\Desktop\nxt\felix\Matrix.nxc"
0	162	234		acquire __TextOutMutex
0	161	235	#line 161 "C:\Users\Noah\Desktop\nxt\felix\Matrix.nxc"
0	162	235		mov __TextOutArgs.Location.X, __signed_stack_001main
0	161	237	#line 161 "C:\Users\Noah\Desktop\nxt\felix\Matrix.nxc"
0	162	237		mov __TextOutArgs.Location.Y, __signed_stack_002main
0	161	239	#line 161 "C:\Users\Noah\Desktop\nxt\felix\Matrix.nxc"
0	162	239		set __TextOutArgs.Options, 0
0	161	242	#line 161 "C:\Users\Noah\Desktop\nxt\felix\Matrix.nxc"
0	162	242		numtostr __TextOutArgs.Text, __D0main
0	161	245	#line 161 "C:\Users\Noah\Desktop\nxt\felix\Matrix.nxc"
0	162	245		syscall 13, __TextOutArgs
0	161	248	#line 161 "C:\Users\Noah\Desktop\nxt\felix\Matrix.nxc"
0	162	248		mov __D0main, __TextOutArgs.Result
0	161	250	#line 161 "C:\Users\Noah\Desktop\nxt\felix\Matrix.nxc"
0	162	250		release __TextOutMutex
0	161	251	#line 161 "C:\Users\Noah\Desktop\nxt\felix\Matrix.nxc"
0	161	251	#line 161 "C:\Users\Noah\Desktop\nxt\felix\Matrix.nxc"
0	162	251		set __signed_stack_001main, 0
0	161	254	#line 161 "C:\Users\Noah\Desktop\nxt\felix\Matrix.nxc"
0	161	254	#line 161 "C:\Users\Noah\Desktop\nxt\felix\Matrix.nxc"
0	162	254		set __signed_stack_002main, 40
0	161	257	#line 161 "C:\Users\Noah\Desktop\nxt\felix\Matrix.nxc"
0	161	257	#line 161 "C:\Users\Noah\Desktop\nxt\felix\Matrix.nxc"
0	162	257		mov __D0main, gsensor3
0	162	259	#line 162 "C:\Users\Noah\Desktop\nxt\felix\Matrix.nxc"
0	163	259		acquire __TextOutMutex
0	162	260	#line 162 "C:\Users\Noah\Desktop\nxt\felix\Matrix.nxc"
0	163	260		mov __TextOutArgs.Location.X, __signed_stack_001main
0	162	262	#line 162 "C:\Users\Noah\Desktop\nxt\felix\Matrix.nxc"
0	163	262		mov __TextOutArgs.Location.Y, __signed_stack_002main
0	162	264	#line 162 "C:\Users\Noah\Desktop\nxt\felix\Matrix.nxc"
0	163	264		set __TextOutArgs.Options, 0
0	162	267	#line 162 "C:\Users\Noah\Desktop\nxt\felix\Matrix.nxc"
0	163	267		numtostr __TextOutArgs.Text, __D0main
0	162	270	#line 162 "C:\Users\Noah\Desktop\nxt\felix\Matrix.nxc"
0	163	270		syscall 13, __TextOutArgs
0	162	273	#line 162 "C:\Users\Noah\Desktop\nxt\felix\Matrix.nxc"
0	163	273		mov __D0main, __TextOutArgs.Result
0	162	275	#line 162 "C:\Users\Noah\Desktop\nxt\felix\Matrix.nxc"
0	163	275		release __TextOutMutex
0	162	276	#line 162 "C:\Users\Noah\Desktop\nxt\felix\Matrix.nxc"
0	162	276	#line 162 "C:\Users\Noah\Desktop\nxt\felix\Matrix.nxc"
0	163	276		set __signed_stack_001main, 0
0	162	279	#line 162 "C:\Users\Noah\Desktop\nxt\felix\Matrix.nxc"
0	162	279	#line 162 "C:\Users\Noah\Desktop\nxt\felix\Matrix.nxc"
0	163	279		set __signed_stack_002main, 32
0	162	282	#line 162 "C:\Users\Noah\Desktop\nxt\felix\Matrix.nxc"
0	162	282	#line 162 "C:\Users\Noah\Desktop\nxt\felix\Matrix.nxc"
0	163	282		mov __D0main, gsensor4
0	163	284	#line 163 "C:\Users\Noah\Desktop\nxt\felix\Matrix.nxc"
0	164	284		acquire __TextOutMutex
0	163	285	#line 163 "C:\Users\Noah\Desktop\nxt\felix\Matrix.nxc"
0	164	285		mov __TextOutArgs.Location.X, __signed_stack_001main
0	163	287	#line 163 "C:\Users\Noah\Desktop\nxt\felix\Matrix.nxc"
0	164	287		mov __TextOutArgs.Location.Y, __signed_stack_002main
0	163	289	#line 163 "C:\Users\Noah\Desktop\nxt\felix\Matrix.nxc"
0	164	289		set __TextOutArgs.Options, 0
0	163	292	#line 163 "C:\Users\Noah\Desktop\nxt\felix\Matrix.nxc"
0	164	292		numtostr __TextOutArgs.Text, __D0main
0	163	295	#line 163 "C:\Users\Noah\Desktop\nxt\felix\Matrix.nxc"
0	164	295		syscall 13, __TextOutArgs
0	163	298	#line 163 "C:\Users\Noah\Desktop\nxt\felix\Matrix.nxc"
0	164	298		mov __D0main, __TextOutArgs.Result
0	163	300	#line 163 "C:\Users\Noah\Desktop\nxt\felix\Matrix.nxc"
0	164	300		release __TextOutMutex
0	163	301	#line 163 "C:\Users\Noah\Desktop\nxt\felix\Matrix.nxc"
0	163	301	#line 163 "C:\Users\Noah\Desktop\nxt\felix\Matrix.nxc"
0	164	301		set __signed_stack_001main, 0
0	163	304	#line 163 "C:\Users\Noah\Desktop\nxt\felix\Matrix.nxc"
0	163	304	#line 163 "C:\Users\Noah\Desktop\nxt\felix\Matrix.nxc"
0	164	304		set __signed_stack_002main, 0
0	163	307	#line 163 "C:\Users\Noah\Desktop\nxt\felix\Matrix.nxc"
0	163	307	#line 163 "C:\Users\Noah\Desktop\nxt\felix\Matrix.nxc"
0	164	307		strcat __strbufmain, __constStr0017
0	164	311	#line 164 "C:\Users\Noah\Desktop\nxt\felix\Matrix.nxc"
0	165	311		acquire __TextOutMutex
0	164	312	#line 164 "C:\Users\Noah\Desktop\nxt\felix\Matrix.nxc"
0	165	312		mov __TextOutArgs.Location.X, __signed_stack_001main
0	164	314	#line 164 "C:\Users\Noah\Desktop\nxt\felix\Matrix.nxc"
0	165	314		mov __TextOutArgs.Location.Y, __signed_stack_002main
0	164	316	#line 164 "C:\Users\Noah\Desktop\nxt\felix\Matrix.nxc"
0	165	316		set __TextOutArgs.Options, 0
0	164	319	#line 164 "C:\Users\Noah\Desktop\nxt\felix\Matrix.nxc"
0	165	319		mov __TextOutArgs.Text, __strbufmain
0	164	321	#line 164 "C:\Users\Noah\Desktop\nxt\felix\Matrix.nxc"
0	165	321		syscall 13, __TextOutArgs
0	164	324	#line 164 "C:\Users\Noah\Desktop\nxt\felix\Matrix.nxc"
0	165	324		mov __D0main, __TextOutArgs.Result
0	164	326	#line 164 "C:\Users\Noah\Desktop\nxt\felix\Matrix.nxc"
0	165	326		release __TextOutMutex
0	164	327	#line 164 "C:\Users\Noah\Desktop\nxt\felix\Matrix.nxc"
0	164	327	#line 164 "C:\Users\Noah\Desktop\nxt\felix\Matrix.nxc"
0	165	327		set __signed_stack_001main, 65
0	164	330	#line 164 "C:\Users\Noah\Desktop\nxt\felix\Matrix.nxc"
0	164	330	#line 164 "C:\Users\Noah\Desktop\nxt\felix\Matrix.nxc"
0	165	330		set __signed_stack_002main, 0
0	164	333	#line 164 "C:\Users\Noah\Desktop\nxt\felix\Matrix.nxc"
0	164	333	#line 164 "C:\Users\Noah\Desktop\nxt\felix\Matrix.nxc"
0	165	333		strcat __strbufmain, __constStr0018
0	167	337	#line 167 "C:\Users\Noah\Desktop\nxt\felix\Matrix.nxc"
0	168	337		acquire __TextOutMutex
0	167	338	#line 167 "C:\Users\Noah\Desktop\nxt\felix\Matrix.nxc"
0	168	338		mov __TextOutArgs.Location.X, __signed_stack_001main
0	167	340	#line 167 "C:\Users\Noah\Desktop\nxt\felix\Matrix.nxc"
0	168	340		mov __TextOutArgs.Location.Y, __signed_stack_002main
0	167	342	#line 167 "C:\Users\Noah\Desktop\nxt\felix\Matrix.nxc"
0	168	342		set __TextOutArgs.Options, 0
0	167	345	#line 167 "C:\Users\Noah\Desktop\nxt\felix\Matrix.nxc"
0	168	345		mov __TextOutArgs.Text, __strbufmain
0	167	347	#line 167 "C:\Users\Noah\Desktop\nxt\felix\Matrix.nxc"
0	168	347		syscall 13, __TextOutArgs
0	167	350	#line 167 "C:\Users\Noah\Desktop\nxt\felix\Matrix.nxc"
0	168	350		mov __D0main, __TextOutArgs.Result
0	167	352	#line 167 "C:\Users\Noah\Desktop\nxt\felix\Matrix.nxc"
0	168	352		release __TextOutMutex
0	167	353	#line 167 "C:\Users\Noah\Desktop\nxt\felix\Matrix.nxc"
0	167	353	#line 167 "C:\Users\Noah\Desktop\nxt\felix\Matrix.nxc"
0	168	353		set __signed_stack_001main, 1
0	167	356	#line 167 "C:\Users\Noah\Desktop\nxt\felix\Matrix.nxc"
0	167	356	#line 167 "C:\Users\Noah\Desktop\nxt\felix\Matrix.nxc"
0	168	356		set __D0main, 0
0	168	359	#line 168 "C:\Users\Noah\Desktop\nxt\felix\Matrix.nxc"
0	169	359		acquire __RBtnMutex
0	168	360	#line 168 "C:\Users\Noah\Desktop\nxt\felix\Matrix.nxc"
0	169	360		mov __RBtnArgs.Index, __signed_stack_001main
0	168	362	#line 168 "C:\Users\Noah\Desktop\nxt\felix\Matrix.nxc"
0	169	362		mov __RBtnArgs.Reset, __D0main
0	168	364	#line 168 "C:\Users\Noah\Desktop\nxt\felix\Matrix.nxc"
0	169	364		syscall 20, __RBtnArgs
0	168	367	#line 168 "C:\Users\Noah\Desktop\nxt\felix\Matrix.nxc"
0	169	367		mov __D0main, __RBtnArgs.Pressed
0	168	369	#line 168 "C:\Users\Noah\Desktop\nxt\felix\Matrix.nxc"
0	169	369		release __RBtnMutex
0	169	370	#line 169 "C:\Users\Noah\Desktop\nxt\felix\Matrix.nxc"
0	170	370		tst 5, __D0main, __D0main
0	169	373	#line 169 "C:\Users\Noah\Desktop\nxt\felix\Matrix.nxc"
0	170	373		brtst 4, __ASM_Label_842, __D0main
0	6678	376	#line 6678 "NXCDefs.h"
0	6679	376	#pragma macro 6
0	6679	376		acquire __PointOutMutex
0	6679	377		mov __PointOutArgs.Location.X, __constVal200
0	6679	379		mov __PointOutArgs.Location.Y, __constVal200
0	6679	381		mov __PointOutArgs.Options, __constVal1
0	6679	383		syscall 14, __PointOutArgs
0	6679	386		release __PointOutMutex
0	6602	387	#line 6602 "NXCDefs.h"
0	6678	387	#line 6678 "NXCDefs.h"
0	170	387	#line 170 "C:\Users\Noah\Desktop\nxt\felix\Matrix.nxc"
0	171	387	#line 171 "C:\Users\Noah\Desktop\nxt\felix\Matrix.nxc"
0	172	387		subcall startEngine, __startEngine_return
0	171	389	#line 171 "C:\Users\Noah\Desktop\nxt\felix\Matrix.nxc"
0	171	389	#line 171 "C:\Users\Noah\Desktop\nxt\felix\Matrix.nxc"
0	172	389		set __signed_stack_001main, 3
0	171	392	#line 171 "C:\Users\Noah\Desktop\nxt\felix\Matrix.nxc"
0	171	392	#line 171 "C:\Users\Noah\Desktop\nxt\felix\Matrix.nxc"
0	172	392		set __D0main, 0
0	171	395	#line 171 "C:\Users\Noah\Desktop\nxt\felix\Matrix.nxc"
0	172	395		acquire __RBtnMutex
0	171	396	#line 171 "C:\Users\Noah\Desktop\nxt\felix\Matrix.nxc"
0	172	396		mov __RBtnArgs.Index, __signed_stack_001main
0	171	398	#line 171 "C:\Users\Noah\Desktop\nxt\felix\Matrix.nxc"
0	172	398		mov __RBtnArgs.Reset, __D0main
0	171	400	#line 171 "C:\Users\Noah\Desktop\nxt\felix\Matrix.nxc"
0	172	400		syscall 20, __RBtnArgs
0	171	403	#line 171 "C:\Users\Noah\Desktop\nxt\felix\Matrix.nxc"
0	172	403		mov __D0main, __RBtnArgs.Pressed
0	171	405	#line 171 "C:\Users\Noah\Desktop\nxt\felix\Matrix.nxc"
0	172	405		release __RBtnMutex
0	171	406	#line 171 "C:\Users\Noah\Desktop\nxt\felix\Matrix.nxc"
0	172	406		not __D0main, __D0main
0	172	409	#line 172 "C:\Users\Noah\Desktop\nxt\felix\Matrix.nxc"
0	173	409		tst 5, __D0main, __D0main
0	172	412	#line 172 "C:\Users\Noah\Desktop\nxt\felix\Matrix.nxc"
0	173	412		brtst 4, __ASM_Label_844, __D0main
0	172	415	#line 172 "C:\Users\Noah\Desktop\nxt\felix\Matrix.nxc"
0	172	415	#line 172 "C:\Users\Noah\Desktop\nxt\felix\Matrix.nxc"
0	173	415		jmp __ASM_Label_843
0	172	417	#line 172 "C:\Users\Noah\Desktop\nxt\felix\Matrix.nxc"
0	173	417	#line 173 "C:\Users\Noah\Desktop\nxt\felix\Matrix.nxc"
0	173	417	#line 173 "C:\Users\Noah\Desktop\nxt\felix\Matrix.nxc"
0	174	417		set __signed_stack_001main, 2
0	173	420	#line 173 "C:\Users\Noah\Desktop\nxt\felix\Matrix.nxc"
0	173	420	#line 173 "C:\Users\Noah\Desktop\nxt\felix\Matrix.nxc"
0	174	420		set __D0main, 0
0	174	423	#line 174 "C:\Users\Noah\Desktop\nxt\felix\Matrix.nxc"
0	175	423		acquire __RBtnMutex
0	174	424	#line 174 "C:\Users\Noah\Desktop\nxt\felix\Matrix.nxc"
0	175	424		mov __RBtnArgs.Index, __signed_stack_001main
0	174	426	#line 174 "C:\Users\Noah\Desktop\nxt\felix\Matrix.nxc"
0	175	426		mov __RBtnArgs.Reset, __D0main
0	174	428	#line 174 "C:\Users\Noah\Desktop\nxt\felix\Matrix.nxc"
0	175	428		syscall 20, __RBtnArgs
0	174	431	#line 174 "C:\Users\Noah\Desktop\nxt\felix\Matrix.nxc"
0	175	431		mov __D0main, __RBtnArgs.Pressed
0	174	433	#line 174 "C:\Users\Noah\Desktop\nxt\felix\Matrix.nxc"
0	175	433		release __RBtnMutex
0	175	434	#line 175 "C:\Users\Noah\Desktop\nxt\felix\Matrix.nxc"
0	176	434		tst 5, __D0main, __D0main
0	175	437	#line 175 "C:\Users\Noah\Desktop\nxt\felix\Matrix.nxc"
0	176	437		brtst 4, __ASM_Label_859, __D0main
0	176	440	#line 176 "C:\Users\Noah\Desktop\nxt\felix\Matrix.nxc"
0	177	440		subcall calibrateSensors, __calibrateSensors_return
0	176	442	#line 176 "C:\Users\Noah\Desktop\nxt\felix\Matrix.nxc"
0	177	442	#line 177 "C:\Users\Noah\Desktop\nxt\felix\Matrix.nxc"
0	178	442		subcall saveCalibratedValues, __saveCalibratedValues_return
0	177	444	#line 177 "C:\Users\Noah\Desktop\nxt\felix\Matrix.nxc"
0	177	444	#line 177 "C:\Users\Noah\Desktop\nxt\felix\Matrix.nxc"
0	178	444		set __signed_stack_001main, 3
0	177	447	#line 177 "C:\Users\Noah\Desktop\nxt\felix\Matrix.nxc"
0	177	447	#line 177 "C:\Users\Noah\Desktop\nxt\felix\Matrix.nxc"
0	178	447		set __D0main, 0
0	177	450	#line 177 "C:\Users\Noah\Desktop\nxt\felix\Matrix.nxc"
0	178	450		acquire __RBtnMutex
0	177	451	#line 177 "C:\Users\Noah\Desktop\nxt\felix\Matrix.nxc"
0	178	451		mov __RBtnArgs.Index, __signed_stack_001main
0	177	453	#line 177 "C:\Users\Noah\Desktop\nxt\felix\Matrix.nxc"
0	178	453		mov __RBtnArgs.Reset, __D0main
0	177	455	#line 177 "C:\Users\Noah\Desktop\nxt\felix\Matrix.nxc"
0	178	455		syscall 20, __RBtnArgs
0	177	458	#line 177 "C:\Users\Noah\Desktop\nxt\felix\Matrix.nxc"
0	178	458		mov __D0main, __RBtnArgs.Pressed
0	177	460	#line 177 "C:\Users\Noah\Desktop\nxt\felix\Matrix.nxc"
0	178	460		release __RBtnMutex
0	177	461	#line 177 "C:\Users\Noah\Desktop\nxt\felix\Matrix.nxc"
0	178	461		not __D0main, __D0main
0	178	464	#line 178 "C:\Users\Noah\Desktop\nxt\felix\Matrix.nxc"
0	179	464		tst 5, __D0main, __D0main
0	178	467	#line 178 "C:\Users\Noah\Desktop\nxt\felix\Matrix.nxc"
0	179	467		brtst 4, __ASM_Label_861, __D0main
0	178	470	#line 178 "C:\Users\Noah\Desktop\nxt\felix\Matrix.nxc"
0	178	470	#line 178 "C:\Users\Noah\Desktop\nxt\felix\Matrix.nxc"
0	179	470		jmp __ASM_Label_860
0	178	472	#line 178 "C:\Users\Noah\Desktop\nxt\felix\Matrix.nxc"
0	182	472	#line 182 "C:\Users\Noah\Desktop\nxt\felix\Matrix.nxc"
0	187	472	#line 187 "C:\Users\Noah\Desktop\nxt\felix\Matrix.nxc"
0	188	472		jmp __ASM_Label_797
0	187	474	#line 187 "C:\Users\Noah\Desktop\nxt\felix\Matrix.nxc"
0	188	474		exit -1, -1
1	5476	0		setin __constVal1, __ResetSensorPort, 5
1	5478	4		getin __ResetSensorTmp, __ResetSensorPort, 5
1	5479	8		brtst 5, __SensorStillInvalid, __ResetSensorTmp
1	5480	11		subret ____ResetSensorSubroutine_return
2	8683	0		arrinit __RLSOutput, __constVal0, __constVal1
2	8684	4		set __RLSByteCount, 0
2	8686	7		set __FReadArgs.Length, 1
2	8687	10		mov __RLSBuffer, __RLSOutput
2	8688	12		syscall 3, __FReadArgs
2	8689	15		mov __RLSReturn, __FReadArgs.Result
2	8690	17		brtst 5, __RLSStringDone, __RLSReturn
2	8691	20		index __FReadTmpByte, __FReadArgs.Buffer, 65535
2	8692	24		brcmp 4, __RLSStringDone, __FReadTmpByte, __constVal10
2	8693	28		brcmp 4, __RLSStringSkip, __FReadTmpByte, __constVal13
2	8694	32		strcat __RLSOutput, __RLSBuffer, __FReadArgs.Buffer
2	8695	37		add __RLSByteCount, __RLSByteCount, __constVal1
2	8696	41		brcmp 3, __RLSStringDone, __RLSByteCount, __RLSMaxBytes
2	8698	45		jmp __RLSStringLoop
2	8700	47		subret __RLSReturnAddress
3	19305	0	#line 19305 "NXCDefs.h"
3	19306	0		mov __fopen_7qG2_result_7qG2_000, __constVal37632
3	19305	2	#line 19305 "NXCDefs.h"
3	19306	2	#line 19306 "NXCDefs.h"
3	19307	2		strcat __strbuffopen, __fopen_7qG2_mode_7qG2_000
3	19308	6		brcmp 4, __ASM_Label_291, __constStr0006, __strbuffopen
3	19309	10		brcmp 4, __ASM_Label_294, __constStr0007, __strbuffopen
3	19310	14		brcmp 4, __ASM_Label_299, __constStr0008, __strbuffopen
3	19311	18		jmp __ASM_Label_290
3	19308	20	#line 19308 "NXCDefs.h"
3	19308	20	#line 19308 "NXCDefs.h"
3	19309	20	#pragma macro 7
3	19309	20		mov __FOArgs.Filename, __fopen_7qG2_filename_7qG2_000
3	19309	22		syscall 0, __FOArgs
3	19309	25		mov __fopen_7qG2_fsize_7qG2_000, __FOArgs.Length
3	19309	27		mov __fopen_7qG2_handle_7qG2_000, __FOArgs.FileHandle
3	19309	29		mov __fopen_7qG2_result_7qG2_000, __FOArgs.Result
3	3941	31	#line 3941 "NXCDefs.h"
3	19308	31	#line 19308 "NXCDefs.h"
3	19308	31	#line 19308 "NXCDefs.h"
3	19308	31	#line 19308 "NXCDefs.h"
3	19310	31	#line 19310 "NXCDefs.h"
3	19311	31		jmp __ASM_Label_290
3	19310	33	#line 19310 "NXCDefs.h"
3	19311	33	#line 19311 "NXCDefs.h"
3	19312	33	#line 19312 "NXCDefs.h"
3	19313	33		mov __fopen_7qG2_fsize_7qG2_000, __fopen_default_size
3	19312	35	#line 19312 "NXCDefs.h"
3	19312	35	#line 19312 "NXCDefs.h"
3	19312	35	#line 19312 "NXCDefs.h"
3	19313	35	#pragma macro 7
3	19313	35		mov __FOArgs.Filename, __fopen_7qG2_filename_7qG2_000
3	19313	37		mov __FOArgs.Length, __fopen_7qG2_fsize_7qG2_000
3	19313	39		syscall 1, __FOArgs
3	19313	42		mov __fopen_7qG2_handle_7qG2_000, __FOArgs.FileHandle
3	19313	44		mov __fopen_7qG2_result_7qG2_000, __FOArgs.Result
3	3961	46	#line 3961 "NXCDefs.h"
3	19312	46	#line 19312 "NXCDefs.h"
3	19312	46	#line 19312 "NXCDefs.h"
3	19312	46	#line 19312 "NXCDefs.h"
3	19314	46	#line 19314 "NXCDefs.h"
3	19315	46		jmp __ASM_Label_290
3	19314	48	#line 19314 "NXCDefs.h"
3	19315	48	#line 19315 "NXCDefs.h"
3	19315	48	#line 19315 "NXCDefs.h"
3	19316	48	#pragma macro 7
3	19316	48		mov __FOArgs.Filename, __fopen_7qG2_filename_7qG2_000
3	19316	50		syscall 2, __FOArgs
3	19316	53		mov __fopen_7qG2_fsize_7qG2_000, __FOArgs.Length
3	19316	55		mov __fopen_7qG2_handle_7qG2_000, __FOArgs.FileHandle
3	19316	57		mov __fopen_7qG2_result_7qG2_000, __FOArgs.Result
3	3974	59	#line 3974 "NXCDefs.h"
3	19315	59	#line 19315 "NXCDefs.h"
3	19315	59	#line 19315 "NXCDefs.h"
3	19315	59	#line 19315 "NXCDefs.h"
3	19317	59	#line 19317 "NXCDefs.h"
3	19317	59	#line 19317 "NXCDefs.h"
3	19318	59	#line 19318 "NXCDefs.h"
3	19318	59	#line 19318 "NXCDefs.h"
3	19319	59		mov __signed_stack_001fopen, __fopen_7qG2_result_7qG2_000
3	19318	61	#line 19318 "NXCDefs.h"
3	19319	61	#line 19319 "NXCDefs.h"
3	19320	61		set __D0fopen, 0
3	19319	64	#line 19319 "NXCDefs.h"
3	19320	64		cmp 5, __D0fopen, __signed_stack_001fopen, __D0fopen
3	19319	68	#line 19319 "NXCDefs.h"
3	19320	68		brtst 4, __ASM_Label_304, __D0fopen
3	19320	71	#line 19320 "NXCDefs.h"
3	19321	71		set __fopen_7qG2_handle_7qG2_000, 0
3	19320	74	#line 19320 "NXCDefs.h"
3	19320	74	#line 19320 "NXCDefs.h"
3	19320	74	#line 19320 "NXCDefs.h"
3	19321	74	#line 19321 "NXCDefs.h"
3	19322	74		mov __DU0fopen, __fopen_7qG2_handle_7qG2_000
3	19321	76	#line 19321 "NXCDefs.h"
3	19322	76		subret __fopen_return
3	19321	78	#line 19321 "NXCDefs.h"
3	19330	78	#line 19330 "NXCDefs.h"
3	19331	78		subret __fopen_return
4	22	0	#line 22 "C:\Users\Noah\Desktop\nxt\felix\Matrix.nxc"
4	23	0		strcat __strbufsaveCalibratedValues, __constStr0009
4	22	4	#line 22 "C:\Users\Noah\Desktop\nxt\felix\Matrix.nxc"
4	23	4		mov __saveCalibratedValues_7qG2_filename_7qG2_000, __strbufsaveCalibratedValues
4	22	6	#line 22 "C:\Users\Noah\Desktop\nxt\felix\Matrix.nxc"
4	23	6	#pragma macro 5
4	23	6		mov __FDArgs.Filename, __strbufsaveCalibratedValues
4	23	8		syscall 8, __FDArgs
4	23	11		mov __D0saveCalibratedValues, __FDArgs.Result
4	4140	13	#line 4140 "C:\Users\Noah\Desktop\nxt\felix\Matrix.nxc"
4	22	13	#line 22 "C:\Users\Noah\Desktop\nxt\felix\Matrix.nxc"
4	22	13	#line 22 "C:\Users\Noah\Desktop\nxt\felix\Matrix.nxc"
4	23	13	#line 23 "C:\Users\Noah\Desktop\nxt\felix\Matrix.nxc"
4	24	13		strcat __strbufsaveCalibratedValues, __saveCalibratedValues_7qG2_filename_7qG2_000
4	23	17	#line 23 "C:\Users\Noah\Desktop\nxt\felix\Matrix.nxc"
4	24	17		mov __fopen_7qG2_filename_7qG2_000, __strbufsaveCalibratedValues
4	23	19	#line 23 "C:\Users\Noah\Desktop\nxt\felix\Matrix.nxc"
4	24	19		strcat __strbufsaveCalibratedValues, __constStr0007
4	23	23	#line 23 "C:\Users\Noah\Desktop\nxt\felix\Matrix.nxc"
4	24	23		mov __fopen_7qG2_mode_7qG2_000, __strbufsaveCalibratedValues
4	24	25	#line 24 "C:\Users\Noah\Desktop\nxt\felix\Matrix.nxc"
4	25	25		subcall fopen, __fopen_return
4	24	27	#line 24 "C:\Users\Noah\Desktop\nxt\felix\Matrix.nxc"
4	25	27		mov __saveCalibratedValues_7qG2_file_7qG2_000, __DU0fopen
4	24	29	#line 24 "C:\Users\Noah\Desktop\nxt\felix\Matrix.nxc"
4	24	29	#line 24 "C:\Users\Noah\Desktop\nxt\felix\Matrix.nxc"
4	25	29		mov __unsigned_stack_001saveCalibratedValues, __saveCalibratedValues_7qG2_file_7qG2_000
4	24	31	#line 24 "C:\Users\Noah\Desktop\nxt\felix\Matrix.nxc"
4	25	31	#line 25 "C:\Users\Noah\Desktop\nxt\felix\Matrix.nxc"
4	26	31		set __D0saveCalibratedValues, 0
4	25	34	#line 25 "C:\Users\Noah\Desktop\nxt\felix\Matrix.nxc"
4	26	34		cmp 4, __D0saveCalibratedValues, __unsigned_stack_001saveCalibratedValues, __D0saveCalibratedValues
4	26	38	#line 26 "C:\Users\Noah\Desktop\nxt\felix\Matrix.nxc"
4	27	38		brtst 4, __ASM_Label_493, __D0saveCalibratedValues
4	26	41	#line 26 "C:\Users\Noah\Desktop\nxt\felix\Matrix.nxc"
4	27	41		set __signed_stack_001saveCalibratedValues, 0
4	26	44	#line 26 "C:\Users\Noah\Desktop\nxt\felix\Matrix.nxc"
4	26	44	#line 26 "C:\Users\Noah\Desktop\nxt\felix\Matrix.nxc"
4	27	44		set __signed_stack_002saveCalibratedValues, 16
4	26	47	#line 26 "C:\Users\Noah\Desktop\nxt\felix\Matrix.nxc"
4	26	47	#line 26 "C:\Users\Noah\Desktop\nxt\felix\Matrix.nxc"
4	27	47		strcat __strbufsaveCalibratedValues, __constStr0010
4	27	51	#line 27 "C:\Users\Noah\Desktop\nxt\felix\Matrix.nxc"
4	28	51		acquire __TextOutMutex
4	27	52	#line 27 "C:\Users\Noah\Desktop\nxt\felix\Matrix.nxc"
4	28	52		mov __TextOutArgs.Location.X, __signed_stack_001saveCalibratedValues
4	27	54	#line 27 "C:\Users\Noah\Desktop\nxt\felix\Matrix.nxc"
4	28	54		mov __TextOutArgs.Location.Y, __signed_stack_002saveCalibratedValues
4	27	56	#line 27 "C:\Users\Noah\Desktop\nxt\felix\Matrix.nxc"
4	28	56		set __TextOutArgs.Options, 0
4	27	59	#line 27 "C:\Users\Noah\Desktop\nxt\felix\Matrix.nxc"
4	28	59		mov __TextOutArgs.Text, __strbufsaveCalibratedValues
4	27	61	#line 27 "C:\Users\Noah\Desktop\nxt\felix\Matrix.nxc"
4	28	61		syscall 13, __TextOutArgs
4	27	64	#line 27 "C:\Users\Noah\Desktop\nxt\felix\Matrix.nxc"
4	28	64		mov __D0saveCalibratedValues, __TextOutArgs.Result
4	27	66	#line 27 "C:\Users\Noah\Desktop\nxt\felix\Matrix.nxc"
4	28	66		release __TextOutMutex
4	27	67	#line 27 "C:\Users\Noah\Desktop\nxt\felix\Matrix.nxc"
4	29	67	#line 29 "C:\Users\Noah\Desktop\nxt\felix\Matrix.nxc"
4	29	67	#line 29 "C:\Users\Noah\Desktop\nxt\felix\Matrix.nxc"
4	30	67		mov __D0saveCalibratedValues, gsensor1
4	29	69	#line 29 "C:\Users\Noah\Desktop\nxt\felix\Matrix.nxc"
4	30	69		numtostr __strretvalsaveCalibratedValues, __D0saveCalibratedValues
4	29	72	#line 29 "C:\Users\Noah\Desktop\nxt\felix\Matrix.nxc"
4	30	72		strcat __strbufsaveCalibratedValues, __strretvalsaveCalibratedValues
4	29	76	#line 29 "C:\Users\Noah\Desktop\nxt\felix\Matrix.nxc"
4	30	76		mov __fputs_7qG2_str_7qG2_000_inline_saveCalibratedValues, __strbufsaveCalibratedValues
4	29	78	#line 29 "C:\Users\Noah\Desktop\nxt\felix\Matrix.nxc"
4	30	78		mov __fputs_7qG2_handle_7qG2_000_inline_saveCalibratedValues, __saveCalibratedValues_7qG2_file_7qG2_000
4	29	80	#line 29 "C:\Users\Noah\Desktop\nxt\felix\Matrix.nxc"
4	19397	80	#line 19397 "NXCDefs.h"
4	19398	80	#pragma macro 8
4	19398	80		mov __FWriteArgs.FileHandle, __saveCalibratedValues_7qG2_file_7qG2_000
4	19398	82		strtoarr __FWriteArgs.Buffer, __fputs_7qG2_str_7qG2_000_inline_saveCalibratedValues
4	19398	85		arrsize __FWriteArgs.Length, __FWriteArgs.Buffer
4	19398	88		syscall 4, __FWriteArgs
4	19398	91		mov __D0fputs_inline_saveCalibratedValues, __FWriteArgs.Result
4	19398	93		mov __fputs_7qG2_cnt_7qG2_000_inline_saveCalibratedValues, __FWriteArgs.Length
4	4239	95	#line 4239 "NXCDefs.h"
4	19397	95	#line 19397 "NXCDefs.h"
4	19398	95		mov __signed_stack_001fputs_inline_saveCalibratedValues, __D0fputs_inline_saveCalibratedValues
4	19398	97	#line 19398 "NXCDefs.h"
4	19399	97		set __D0fputs_inline_saveCalibratedValues, 0
4	19398	100	#line 19398 "NXCDefs.h"
4	19399	100		cmp 4, __D0fputs_inline_saveCalibratedValues, __signed_stack_001fputs_inline_saveCalibratedValues, __D0fputs_inline_saveCalibratedValues
4	19398	104	#line 19398 "NXCDefs.h"
4	19399	104		brtst 4, __001__ASM_Label_321, __D0fputs_inline_saveCalibratedValues
4	19399	107	#line 19399 "NXCDefs.h"
4	19400	107		mov __D0fputs_inline_saveCalibratedValues, __fputs_7qG2_cnt_7qG2_000_inline_saveCalibratedValues
4	19399	109	#line 19399 "NXCDefs.h"
4	19400	109		jmp __ASM_Label_saveCalibratedValues_inline_fputs_001_end_lbl
4	19399	111	#line 19399 "NXCDefs.h"
4	19400	111	#line 19400 "NXCDefs.h"
4	19401	111		jmp __001__ASM_Label_324
4	19401	113	#line 19401 "NXCDefs.h"
4	19402	113		mov __D0fputs_inline_saveCalibratedValues, __constValNeg1
4	19401	115	#line 19401 "NXCDefs.h"
4	19402	115		jmp __ASM_Label_saveCalibratedValues_inline_fputs_001_end_lbl
4	19401	117	#line 19401 "NXCDefs.h"
4	19401	117	#line 19401 "NXCDefs.h"
4	30	117	#line 30 "C:\Users\Noah\Desktop\nxt\felix\Matrix.nxc"
4	31	117		mov __D0saveCalibratedValues, __D0fputs_inline_saveCalibratedValues
4	30	119	#line 30 "C:\Users\Noah\Desktop\nxt\felix\Matrix.nxc"
4	30	119	#line 30 "C:\Users\Noah\Desktop\nxt\felix\Matrix.nxc"
4	31	119		strcat __strbufsaveCalibratedValues, __constStr0011
4	30	123	#line 30 "C:\Users\Noah\Desktop\nxt\felix\Matrix.nxc"
4	31	123		mov __fputs_7qG2_str_7qG2_000_inline_saveCalibratedValues, __strbufsaveCalibratedValues
4	30	125	#line 30 "C:\Users\Noah\Desktop\nxt\felix\Matrix.nxc"
4	31	125		mov __fputs_7qG2_handle_7qG2_000_inline_saveCalibratedValues, __saveCalibratedValues_7qG2_file_7qG2_000
4	30	127	#line 30 "C:\Users\Noah\Desktop\nxt\felix\Matrix.nxc"
4	19397	127	#line 19397 "NXCDefs.h"
4	19398	127	#pragma macro 8
4	19398	127		mov __FWriteArgs.FileHandle, __saveCalibratedValues_7qG2_file_7qG2_000
4	19398	129		strtoarr __FWriteArgs.Buffer, __fputs_7qG2_str_7qG2_000_inline_saveCalibratedValues
4	19398	132		arrsize __FWriteArgs.Length, __FWriteArgs.Buffer
4	19398	135		syscall 4, __FWriteArgs
4	19398	138		mov __D0fputs_inline_saveCalibratedValues, __FWriteArgs.Result
4	19398	140		mov __fputs_7qG2_cnt_7qG2_000_inline_saveCalibratedValues, __FWriteArgs.Length
4	4285	142	#line 4285 "NXCDefs.h"
4	19397	142	#line 19397 "NXCDefs.h"
4	19398	142		mov __signed_stack_001fputs_inline_saveCalibratedValues, __D0fputs_inline_saveCalibratedValues
4	19398	144	#line 19398 "NXCDefs.h"
4	19399	144		set __D0fputs_inline_saveCalibratedValues, 0
4	19398	147	#line 19398 "NXCDefs.h"
4	19399	147		cmp 4, __D0fputs_inline_saveCalibratedValues, __signed_stack_001fputs_inline_saveCalibratedValues, __D0fputs_inline_saveCalibratedValues
4	19398	151	#line 19398 "NXCDefs.h"
4	19399	151		brtst 4, __002__ASM_Label_321, __D0fputs_inline_saveCalibratedValues
4	19399	154	#line 19399 "NXCDefs.h"
4	19400	154		mov __D0fputs_inline_saveCalibratedValues, __fputs_7qG2_cnt_7qG2_000_inline_saveCalibratedValues
4	19399	156	#line 19399 "NXCDefs.h"
4	19400	156		jmp __ASM_Label_saveCalibratedValues_inline_fputs_002_end_lbl
4	19399	158	#line 19399 "NXCDefs.h"
4	19400	158	#line 19400 "NXCDefs.h"
4	19401	158		jmp __002__ASM_Label_324
4	19401	160	#line 19401 "NXCDefs.h"
4	19402	160		mov __D0fputs_inline_saveCalibratedValues, __constValNeg1
4	19401	162	#line 19401 "NXCDefs.h"
4	19402	162		jmp __ASM_Label_saveCalibratedValues_inline_fputs_002_end_lbl
4	19401	164	#line 19401 "NXCDefs.h"
4	19401	164	#line 19401 "NXCDefs.h"
4	31	164	#line 31 "C:\Users\Noah\Desktop\nxt\felix\Matrix.nxc"
4	31	164	#line 31 "C:\Users\Noah\Desktop\nxt\felix\Matrix.nxc"
4	31	164	#line 31 "C:\Users\Noah\Desktop\nxt\felix\Matrix.nxc"
4	32	164		mov __D0saveCalibratedValues, gsensor2
4	31	166	#line 31 "C:\Users\Noah\Desktop\nxt\felix\Matrix.nxc"
4	32	166		numtostr __strretvalsaveCalibratedValues, __D0saveCalibratedValues
4	31	169	#line 31 "C:\Users\Noah\Desktop\nxt\felix\Matrix.nxc"
4	32	169		strcat __strbufsaveCalibratedValues, __strretvalsaveCalibratedValues
4	31	173	#line 31 "C:\Users\Noah\Desktop\nxt\felix\Matrix.nxc"
4	32	173		mov __fputs_7qG2_str_7qG2_000_inline_saveCalibratedValues, __strbufsaveCalibratedValues
4	31	175	#line 31 "C:\Users\Noah\Desktop\nxt\felix\Matrix.nxc"
4	32	175		mov __fputs_7qG2_handle_7qG2_000_inline_saveCalibratedValues, __saveCalibratedValues_7qG2_file_7qG2_000
4	31	177	#line 31 "C:\Users\Noah\Desktop\nxt\felix\Matrix.nxc"
4	19397	177	#line 19397 "NXCDefs.h"
4	19398	177	#pragma macro 8
4	19398	177		mov __FWriteArgs.FileHandle, __saveCalibratedValues_7qG2_file_7qG2_000
4	19398	179		strtoarr __FWriteArgs.Buffer, __fputs_7qG2_str_7qG2_000_inline_saveCalibratedValues
4	19398	182		arrsize __FWriteArgs.Length, __FWriteArgs.Buffer
4	19398	185		syscall 4, __FWriteArgs
4	19398	188		mov __D0fputs_inline_saveCalibratedValues, __FWriteArgs.Result
4	19398	190		mov __fputs_7qG2_cnt_7qG2_000_inline_saveCalibratedValues, __FWriteArgs.Length
4	4337	192	#line 4337 "NXCDefs.h"
4	19397	192	#line 19397 "NXCDefs.h"
4	19398	192		mov __signed_stack_001fputs_inline_saveCalibratedValues, __D0fputs_inline_saveCalibratedValues
4	19398	194	#line 19398 "NXCDefs.h"
4	19399	194		set __D0fputs_inline_saveCalibratedValues, 0
4	19398	197	#line 19398 "NXCDefs.h"
4	19399	197		cmp 4, __D0fputs_inline_saveCalibratedValues, __signed_stack_001fputs_inline_saveCalibratedValues, __D0fputs_inline_saveCalibratedValues
4	19398	201	#line 19398 "NXCDefs.h"
4	19399	201		brtst 4, __003__ASM_Label_321, __D0fputs_inline_saveCalibratedValues
4	19399	204	#line 19399 "NXCDefs.h"
4	19400	204		mov __D0fputs_inline_saveCalibratedValues, __fputs_7qG2_cnt_7qG2_000_inline_saveCalibratedValues
4	19399	206	#line 19399 "NXCDefs.h"
4	19400	206		jmp __ASM_Label_saveCalibratedValues_inline_fputs_003_end_lbl
4	19399	208	#line 19399 "NXCDefs.h"
4	19400	208	#line 19400 "NXCDefs.h"
4	19401	208		jmp __003__ASM_Label_324
4	19401	210	#line 19401 "NXCDefs.h"
4	19402	210		mov __D0fputs_inline_saveCalibratedValues, __constValNeg1
4	19401	212	#line 19401 "NXCDefs.h"
4	19402	212		jmp __ASM_Label_saveCalibratedValues_inline_fputs_003_end_lbl
4	19401	214	#line 19401 "NXCDefs.h"
4	19401	214	#line 19401 "NXCDefs.h"
4	32	214	#line 32 "C:\Users\Noah\Desktop\nxt\felix\Matrix.nxc"
4	33	214		mov __D0saveCalibratedValues, __D0fputs_inline_saveCalibratedValues
4	32	216	#line 32 "C:\Users\Noah\Desktop\nxt\felix\Matrix.nxc"
4	32	216	#line 32 "C:\Users\Noah\Desktop\nxt\felix\Matrix.nxc"
4	33	216		strcat __strbufsaveCalibratedValues, __constStr0011
4	32	220	#line 32 "C:\Users\Noah\Desktop\nxt\felix\Matrix.nxc"
4	33	220		mov __fputs_7qG2_str_7qG2_000_inline_saveCalibratedValues, __strbufsaveCalibratedValues
4	32	222	#line 32 "C:\Users\Noah\Desktop\nxt\felix\Matrix.nxc"
4	33	222		mov __fputs_7qG2_handle_7qG2_000_inline_saveCalibratedValues, __saveCalibratedValues_7qG2_file_7qG2_000
4	32	224	#line 32 "C:\Users\Noah\Desktop\nxt\felix\Matrix.nxc"
4	19397	224	#line 19397 "NXCDefs.h"
4	19398	224	#pragma macro 8
4	19398	224		mov __FWriteArgs.FileHandle, __saveCalibratedValues_7qG2_file_7qG2_000
4	19398	226		strtoarr __FWriteArgs.Buffer, __fputs_7qG2_str_7qG2_000_inline_saveCalibratedValues
4	19398	229		arrsize __FWriteArgs.Length, __FWriteArgs.Buffer
4	19398	232		syscall 4, __FWriteArgs
4	19398	235		mov __D0fputs_inline_saveCalibratedValues, __FWriteArgs.Result
4	19398	237		mov __fputs_7qG2_cnt_7qG2_000_inline_saveCalibratedValues, __FWriteArgs.Length
4	4383	239	#line 4383 "NXCDefs.h"
4	19397	239	#line 19397 "NXCDefs.h"
4	19398	239		mov __signed_stack_001fputs_inline_saveCalibratedValues, __D0fputs_inline_saveCalibratedValues
4	19398	241	#line 19398 "NXCDefs.h"
4	19399	241		set __D0fputs_inline_saveCalibratedValues, 0
4	19398	244	#line 19398 "NXCDefs.h"
4	19399	244		cmp 4, __D0fputs_inline_saveCalibratedValues, __signed_stack_001fputs_inline_saveCalibratedValues, __D0fputs_inline_saveCalibratedValues
4	19398	248	#line 19398 "NXCDefs.h"
4	19399	248		brtst 4, __004__ASM_Label_321, __D0fputs_inline_saveCalibratedValues
4	19399	251	#line 19399 "NXCDefs.h"
4	19400	251		mov __D0fputs_inline_saveCalibratedValues, __fputs_7qG2_cnt_7qG2_000_inline_saveCalibratedValues
4	19399	253	#line 19399 "NXCDefs.h"
4	19400	253		jmp __ASM_Label_saveCalibratedValues_inline_fputs_004_end_lbl
4	19399	255	#line 19399 "NXCDefs.h"
4	19400	255	#line 19400 "NXCDefs.h"
4	19401	255		jmp __004__ASM_Label_324
4	19401	257	#line 19401 "NXCDefs.h"
4	19402	257		mov __D0fputs_inline_saveCalibratedValues, __constValNeg1
4	19401	259	#line 19401 "NXCDefs.h"
4	19402	259		jmp __ASM_Label_saveCalibratedValues_inline_fputs_004_end_lbl
4	19401	261	#line 19401 "NXCDefs.h"
4	19401	261	#line 19401 "NXCDefs.h"
4	33	261	#line 33 "C:\Users\Noah\Desktop\nxt\felix\Matrix.nxc"
4	33	261	#line 33 "C:\Users\Noah\Desktop\nxt\felix\Matrix.nxc"
4	33	261	#line 33 "C:\Users\Noah\Desktop\nxt\felix\Matrix.nxc"
4	34	261		mov __D0saveCalibratedValues, gsensor3
4	33	263	#line 33 "C:\Users\Noah\Desktop\nxt\felix\Matrix.nxc"
4	34	263		numtostr __strretvalsaveCalibratedValues, __D0saveCalibratedValues
4	33	266	#line 33 "C:\Users\Noah\Desktop\nxt\felix\Matrix.nxc"
4	34	266		strcat __strbufsaveCalibratedValues, __strretvalsaveCalibratedValues
4	33	270	#line 33 "C:\Users\Noah\Desktop\nxt\felix\Matrix.nxc"
4	34	270		mov __fputs_7qG2_str_7qG2_000_inline_saveCalibratedValues, __strbufsaveCalibratedValues
4	33	272	#line 33 "C:\Users\Noah\Desktop\nxt\felix\Matrix.nxc"
4	34	272		mov __fputs_7qG2_handle_7qG2_000_inline_saveCalibratedValues, __saveCalibratedValues_7qG2_file_7qG2_000
4	33	274	#line 33 "C:\Users\Noah\Desktop\nxt\felix\Matrix.nxc"
4	19397	274	#line 19397 "NXCDefs.h"
4	19398	274	#pragma macro 8
4	19398	274		mov __FWriteArgs.FileHandle, __saveCalibratedValues_7qG2_file_7qG2_000
4	19398	276		strtoarr __FWriteArgs.Buffer, __fputs_7qG2_str_7qG2_000_inline_saveCalibratedValues
4	19398	279		arrsize __FWriteArgs.Length, __FWriteArgs.Buffer
4	19398	282		syscall 4, __FWriteArgs
4	19398	285		mov __D0fputs_inline_saveCalibratedValues, __FWriteArgs.Result
4	19398	287		mov __fputs_7qG2_cnt_7qG2_000_inline_saveCalibratedValues, __FWriteArgs.Length
4	4435	289	#line 4435 "NXCDefs.h"
4	19397	289	#line 19397 "NXCDefs.h"
4	19398	289		mov __signed_stack_001fputs_inline_saveCalibratedValues, __D0fputs_inline_saveCalibratedValues
4	19398	291	#line 19398 "NXCDefs.h"
4	19399	291		set __D0fputs_inline_saveCalibratedValues, 0
4	19398	294	#line 19398 "NXCDefs.h"
4	19399	294		cmp 4, __D0fputs_inline_saveCalibratedValues, __signed_stack_001fputs_inline_saveCalibratedValues, __D0fputs_inline_saveCalibratedValues
4	19398	298	#line 19398 "NXCDefs.h"
4	19399	298		brtst 4, __005__ASM_Label_321, __D0fputs_inline_saveCalibratedValues
4	19399	301	#line 19399 "NXCDefs.h"
4	19400	301		mov __D0fputs_inline_saveCalibratedValues, __fputs_7qG2_cnt_7qG2_000_inline_saveCalibratedValues
4	19399	303	#line 19399 "NXCDefs.h"
4	19400	303		jmp __ASM_Label_saveCalibratedValues_inline_fputs_005_end_lbl
4	19399	305	#line 19399 "NXCDefs.h"
4	19400	305	#line 19400 "NXCDefs.h"
4	19401	305		jmp __005__ASM_Label_324
4	19401	307	#line 19401 "NXCDefs.h"
4	19402	307		mov __D0fputs_inline_saveCalibratedValues, __constValNeg1
4	19401	309	#line 19401 "NXCDefs.h"
4	19402	309		jmp __ASM_Label_saveCalibratedValues_inline_fputs_005_end_lbl
4	19401	311	#line 19401 "NXCDefs.h"
4	19401	311	#line 19401 "NXCDefs.h"
4	34	311	#line 34 "C:\Users\Noah\Desktop\nxt\felix\Matrix.nxc"
4	35	311		mov __D0saveCalibratedValues, __D0fputs_inline_saveCalibratedValues
4	34	313	#line 34 "C:\Users\Noah\Desktop\nxt\felix\Matrix.nxc"
4	34	313	#line 34 "C:\Users\Noah\Desktop\nxt\felix\Matrix.nxc"
4	35	313		strcat __strbufsaveCalibratedValues, __constStr0011
4	34	317	#line 34 "C:\Users\Noah\Desktop\nxt\felix\Matrix.nxc"
4	35	317		mov __fputs_7qG2_str_7qG2_000_inline_saveCalibratedValues, __strbufsaveCalibratedValues
4	34	319	#line 34 "C:\Users\Noah\Desktop\nxt\felix\Matrix.nxc"
4	35	319		mov __fputs_7qG2_handle_7qG2_000_inline_saveCalibratedValues, __saveCalibratedValues_7qG2_file_7qG2_000
4	34	321	#line 34 "C:\Users\Noah\Desktop\nxt\felix\Matrix.nxc"
4	19397	321	#line 19397 "NXCDefs.h"
4	19398	321	#pragma macro 8
4	19398	321		mov __FWriteArgs.FileHandle, __saveCalibratedValues_7qG2_file_7qG2_000
4	19398	323		strtoarr __FWriteArgs.Buffer, __fputs_7qG2_str_7qG2_000_inline_saveCalibratedValues
4	19398	326		arrsize __FWriteArgs.Length, __FWriteArgs.Buffer
4	19398	329		syscall 4, __FWriteArgs
4	19398	332		mov __D0fputs_inline_saveCalibratedValues, __FWriteArgs.Result
4	19398	334		mov __fputs_7qG2_cnt_7qG2_000_inline_saveCalibratedValues, __FWriteArgs.Length
4	4481	336	#line 4481 "NXCDefs.h"
4	19397	336	#line 19397 "NXCDefs.h"
4	19398	336		mov __signed_stack_001fputs_inline_saveCalibratedValues, __D0fputs_inline_saveCalibratedValues
4	19398	338	#line 19398 "NXCDefs.h"
4	19399	338		set __D0fputs_inline_saveCalibratedValues, 0
4	19398	341	#line 19398 "NXCDefs.h"
4	19399	341		cmp 4, __D0fputs_inline_saveCalibratedValues, __signed_stack_001fputs_inline_saveCalibratedValues, __D0fputs_inline_saveCalibratedValues
4	19398	345	#line 19398 "NXCDefs.h"
4	19399	345		brtst 4, __006__ASM_Label_321, __D0fputs_inline_saveCalibratedValues
4	19399	348	#line 19399 "NXCDefs.h"
4	19400	348		mov __D0fputs_inline_saveCalibratedValues, __fputs_7qG2_cnt_7qG2_000_inline_saveCalibratedValues
4	19399	350	#line 19399 "NXCDefs.h"
4	19400	350		jmp __ASM_Label_saveCalibratedValues_inline_fputs_006_end_lbl
4	19399	352	#line 19399 "NXCDefs.h"
4	19400	352	#line 19400 "NXCDefs.h"
4	19401	352		jmp __006__ASM_Label_324
4	19401	354	#line 19401 "NXCDefs.h"
4	19402	354		mov __D0fputs_inline_saveCalibratedValues, __constValNeg1
4	19401	356	#line 19401 "NXCDefs.h"
4	19402	356		jmp __ASM_Label_saveCalibratedValues_inline_fputs_006_end_lbl
4	19401	358	#line 19401 "NXCDefs.h"
4	19401	358	#line 19401 "NXCDefs.h"
4	35	358	#line 35 "C:\Users\Noah\Desktop\nxt\felix\Matrix.nxc"
4	35	358	#line 35 "C:\Users\Noah\Desktop\nxt\felix\Matrix.nxc"
4	35	358	#line 35 "C:\Users\Noah\Desktop\nxt\felix\Matrix.nxc"
4	36	358		mov __D0saveCalibratedValues, gsensor4
4	35	360	#line 35 "C:\Users\Noah\Desktop\nxt\felix\Matrix.nxc"
4	36	360		numtostr __strretvalsaveCalibratedValues, __D0saveCalibratedValues
4	35	363	#line 35 "C:\Users\Noah\Desktop\nxt\felix\Matrix.nxc"
4	36	363		strcat __strbufsaveCalibratedValues, __strretvalsaveCalibratedValues
4	35	367	#line 35 "C:\Users\Noah\Desktop\nxt\felix\Matrix.nxc"
4	36	367		mov __fputs_7qG2_str_7qG2_000_inline_saveCalibratedValues, __strbufsaveCalibratedValues
4	35	369	#line 35 "C:\Users\Noah\Desktop\nxt\felix\Matrix.nxc"
4	36	369		mov __fputs_7qG2_handle_7qG2_000_inline_saveCalibratedValues, __saveCalibratedValues_7qG2_file_7qG2_000
4	35	371	#line 35 "C:\Users\Noah\Desktop\nxt\felix\Matrix.nxc"
4	19397	371	#line 19397 "NXCDefs.h"
4	19398	371	#pragma macro 8
4	19398	371		mov __FWriteArgs.FileHandle, __saveCalibratedValues_7qG2_file_7qG2_000
4	19398	373		strtoarr __FWriteArgs.Buffer, __fputs_7qG2_str_7qG2_000_inline_saveCalibratedValues
4	19398	376		arrsize __FWriteArgs.Length, __FWriteArgs.Buffer
4	19398	379		syscall 4, __FWriteArgs
4	19398	382		mov __D0fputs_inline_saveCalibratedValues, __FWriteArgs.Result
4	19398	384		mov __fputs_7qG2_cnt_7qG2_000_inline_saveCalibratedValues, __FWriteArgs.Length
4	4533	386	#line 4533 "NXCDefs.h"
4	19397	386	#line 19397 "NXCDefs.h"
4	19398	386		mov __signed_stack_001fputs_inline_saveCalibratedValues, __D0fputs_inline_saveCalibratedValues
4	19398	388	#line 19398 "NXCDefs.h"
4	19399	388		set __D0fputs_inline_saveCalibratedValues, 0
4	19398	391	#line 19398 "NXCDefs.h"
4	19399	391		cmp 4, __D0fputs_inline_saveCalibratedValues, __signed_stack_001fputs_inline_saveCalibratedValues, __D0fputs_inline_saveCalibratedValues
4	19398	395	#line 19398 "NXCDefs.h"
4	19399	395		brtst 4, __007__ASM_Label_321, __D0fputs_inline_saveCalibratedValues
4	19399	398	#line 19399 "NXCDefs.h"
4	19400	398		mov __D0fputs_inline_saveCalibratedValues, __fputs_7qG2_cnt_7qG2_000_inline_saveCalibratedValues
4	19399	400	#line 19399 "NXCDefs.h"
4	19400	400		jmp __ASM_Label_saveCalibratedValues_inline_fputs_007_end_lbl
4	19399	402	#line 19399 "NXCDefs.h"
4	19400	402	#line 19400 "NXCDefs.h"
4	19401	402		jmp __007__ASM_Label_324
4	19401	404	#line 19401 "NXCDefs.h"
4	19402	404		mov __D0fputs_inline_saveCalibratedValues, __constValNeg1
4	19401	406	#line 19401 "NXCDefs.h"
4	19402	406		jmp __ASM_Label_saveCalibratedValues_inline_fputs_007_end_lbl
4	19401	408	#line 19401 "NXCDefs.h"
4	19401	408	#line 19401 "NXCDefs.h"
4	36	408	#line 36 "C:\Users\Noah\Desktop\nxt\felix\Matrix.nxc"
4	37	408		mov __D0saveCalibratedValues, __D0fputs_inline_saveCalibratedValues
4	36	410	#line 36 "C:\Users\Noah\Desktop\nxt\felix\Matrix.nxc"
4	36	410	#line 36 "C:\Users\Noah\Desktop\nxt\felix\Matrix.nxc"
4	37	410		strcat __strbufsaveCalibratedValues, __constStr0011
4	36	414	#line 36 "C:\Users\Noah\Desktop\nxt\felix\Matrix.nxc"
4	37	414		mov __fputs_7qG2_str_7qG2_000_inline_saveCalibratedValues, __strbufsaveCalibratedValues
4	36	416	#line 36 "C:\Users\Noah\Desktop\nxt\felix\Matrix.nxc"
4	37	416		mov __fputs_7qG2_handle_7qG2_000_inline_saveCalibratedValues, __saveCalibratedValues_7qG2_file_7qG2_000
4	36	418	#line 36 "C:\Users\Noah\Desktop\nxt\felix\Matrix.nxc"
4	19397	418	#line 19397 "NXCDefs.h"
4	19398	418	#pragma macro 8
4	19398	418		mov __FWriteArgs.FileHandle, __saveCalibratedValues_7qG2_file_7qG2_000
4	19398	420		strtoarr __FWriteArgs.Buffer, __fputs_7qG2_str_7qG2_000_inline_saveCalibratedValues
4	19398	423		arrsize __FWriteArgs.Length, __FWriteArgs.Buffer
4	19398	426		syscall 4, __FWriteArgs
4	19398	429		mov __D0fputs_inline_saveCalibratedValues, __FWriteArgs.Result
4	19398	431		mov __fputs_7qG2_cnt_7qG2_000_inline_saveCalibratedValues, __FWriteArgs.Length
4	4579	433	#line 4579 "NXCDefs.h"
4	19397	433	#line 19397 "NXCDefs.h"
4	19398	433		mov __signed_stack_001fputs_inline_saveCalibratedValues, __D0fputs_inline_saveCalibratedValues
4	19398	435	#line 19398 "NXCDefs.h"
4	19399	435		set __D0fputs_inline_saveCalibratedValues, 0
4	19398	438	#line 19398 "NXCDefs.h"
4	19399	438		cmp 4, __D0fputs_inline_saveCalibratedValues, __signed_stack_001fputs_inline_saveCalibratedValues, __D0fputs_inline_saveCalibratedValues
4	19398	442	#line 19398 "NXCDefs.h"
4	19399	442		brtst 4, __008__ASM_Label_321, __D0fputs_inline_saveCalibratedValues
4	19399	445	#line 19399 "NXCDefs.h"
4	19400	445		mov __D0fputs_inline_saveCalibratedValues, __fputs_7qG2_cnt_7qG2_000_inline_saveCalibratedValues
4	19399	447	#line 19399 "NXCDefs.h"
4	19400	447		jmp __ASM_Label_saveCalibratedValues_inline_fputs_008_end_lbl
4	19399	449	#line 19399 "NXCDefs.h"
4	19400	449	#line 19400 "NXCDefs.h"
4	19401	449		jmp __008__ASM_Label_324
4	19401	451	#line 19401 "NXCDefs.h"
4	19402	451		mov __D0fputs_inline_saveCalibratedValues, __constValNeg1
4	19401	453	#line 19401 "NXCDefs.h"
4	19402	453		jmp __ASM_Label_saveCalibratedValues_inline_fputs_008_end_lbl
4	19401	455	#line 19401 "NXCDefs.h"
4	19401	455	#line 19401 "NXCDefs.h"
4	38	455	#line 38 "C:\Users\Noah\Desktop\nxt\felix\Matrix.nxc"
4	38	455	#line 38 "C:\Users\Noah\Desktop\nxt\felix\Matrix.nxc"
4	38	455	#line 38 "C:\Users\Noah\Desktop\nxt\felix\Matrix.nxc"
4	38	455	#line 38 "C:\Users\Noah\Desktop\nxt\felix\Matrix.nxc"
4	19330	455	#line 19330 "NXCDefs.h"
4	19331	455		set __D0saveCalibratedValues, 0
4	19330	458	#line 19330 "NXCDefs.h"
4	19330	458	#line 19330 "NXCDefs.h"
4	39	458	#line 39 "C:\Users\Noah\Desktop\nxt\felix\Matrix.nxc"
4	39	458	#line 39 "C:\Users\Noah\Desktop\nxt\felix\Matrix.nxc"
4	39	458	#line 39 "C:\Users\Noah\Desktop\nxt\felix\Matrix.nxc"
4	40	458		mov __fclose_7qG2_handle_7qG2_000_inline_saveCalibratedValues, __saveCalibratedValues_7qG2_file_7qG2_000
4	39	460	#line 39 "C:\Users\Noah\Desktop\nxt\felix\Matrix.nxc"
4	19196	460	#line 19196 "NXCDefs.h"
4	19197	460	#pragma macro 5
4	19197	460		acquire __FCMutex
4	19197	461		mov __FCArgs.FileHandle, __fclose_7qG2_handle_7qG2_000_inline_saveCalibratedValues
4	19197	463		syscall 5, __FCArgs
4	19197	466		mov __D0fclose_inline_saveCalibratedValues, __FCArgs.Result
4	19197	469		release __FCMutex
4	4645	470	#line 4645 "NXCDefs.h"
4	19196	470	#line 19196 "NXCDefs.h"
4	19196	470	#line 19196 "NXCDefs.h"
4	19196	470	#line 19196 "NXCDefs.h"
4	40	470	#line 40 "C:\Users\Noah\Desktop\nxt\felix\Matrix.nxc"
4	41	470		mov __D0saveCalibratedValues, __D0fclose_inline_saveCalibratedValues
4	40	472	#line 40 "C:\Users\Noah\Desktop\nxt\felix\Matrix.nxc"
4	42	472	#line 42 "C:\Users\Noah\Desktop\nxt\felix\Matrix.nxc"
4	43	472		subret __saveCalibratedValues_return
5	45	0	#line 45 "C:\Users\Noah\Desktop\nxt\felix\Matrix.nxc"
5	46	0		strcat __strbufreadCalibratedValues, __constStr0009
5	45	4	#line 45 "C:\Users\Noah\Desktop\nxt\felix\Matrix.nxc"
5	46	4		mov __fopen_7qG2_filename_7qG2_000, __strbufreadCalibratedValues
5	45	6	#line 45 "C:\Users\Noah\Desktop\nxt\felix\Matrix.nxc"
5	46	6		strcat __strbufreadCalibratedValues, __constStr0006
5	45	10	#line 45 "C:\Users\Noah\Desktop\nxt\felix\Matrix.nxc"
5	46	10		mov __fopen_7qG2_mode_7qG2_000, __strbufreadCalibratedValues
5	46	12	#line 46 "C:\Users\Noah\Desktop\nxt\felix\Matrix.nxc"
5	47	12		subcall fopen, __fopen_return
5	46	14	#line 46 "C:\Users\Noah\Desktop\nxt\felix\Matrix.nxc"
5	47	14		mov __readCalibratedValues_7qG2_file_7qG2_000, __DU0fopen
5	46	16	#line 46 "C:\Users\Noah\Desktop\nxt\felix\Matrix.nxc"
5	46	16	#line 46 "C:\Users\Noah\Desktop\nxt\felix\Matrix.nxc"
5	47	16		mov __unsigned_stack_001readCalibratedValues, __readCalibratedValues_7qG2_file_7qG2_000
5	46	18	#line 46 "C:\Users\Noah\Desktop\nxt\felix\Matrix.nxc"
5	47	18	#line 47 "C:\Users\Noah\Desktop\nxt\felix\Matrix.nxc"
5	48	18		set __D0readCalibratedValues, 0
5	47	21	#line 47 "C:\Users\Noah\Desktop\nxt\felix\Matrix.nxc"
5	48	21		cmp 4, __D0readCalibratedValues, __unsigned_stack_001readCalibratedValues, __D0readCalibratedValues
5	48	25	#line 48 "C:\Users\Noah\Desktop\nxt\felix\Matrix.nxc"
5	49	25		brtst 4, __ASM_Label_530, __D0readCalibratedValues
5	48	28	#line 48 "C:\Users\Noah\Desktop\nxt\felix\Matrix.nxc"
5	49	28		set __signed_stack_001readCalibratedValues, 0
5	48	31	#line 48 "C:\Users\Noah\Desktop\nxt\felix\Matrix.nxc"
5	48	31	#line 48 "C:\Users\Noah\Desktop\nxt\felix\Matrix.nxc"
5	49	31		set __signed_stack_002readCalibratedValues, 16
5	48	34	#line 48 "C:\Users\Noah\Desktop\nxt\felix\Matrix.nxc"
5	48	34	#line 48 "C:\Users\Noah\Desktop\nxt\felix\Matrix.nxc"
5	49	34		strcat __strbufreadCalibratedValues, __constStr0012
5	49	38	#line 49 "C:\Users\Noah\Desktop\nxt\felix\Matrix.nxc"
5	50	38		acquire __TextOutMutex
5	49	39	#line 49 "C:\Users\Noah\Desktop\nxt\felix\Matrix.nxc"
5	50	39		mov __TextOutArgs.Location.X, __signed_stack_001readCalibratedValues
5	49	41	#line 49 "C:\Users\Noah\Desktop\nxt\felix\Matrix.nxc"
5	50	41		mov __TextOutArgs.Location.Y, __signed_stack_002readCalibratedValues
5	49	43	#line 49 "C:\Users\Noah\Desktop\nxt\felix\Matrix.nxc"
5	50	43		set __TextOutArgs.Options, 0
5	49	46	#line 49 "C:\Users\Noah\Desktop\nxt\felix\Matrix.nxc"
5	50	46		mov __TextOutArgs.Text, __strbufreadCalibratedValues
5	49	48	#line 49 "C:\Users\Noah\Desktop\nxt\felix\Matrix.nxc"
5	50	48		syscall 13, __TextOutArgs
5	49	51	#line 49 "C:\Users\Noah\Desktop\nxt\felix\Matrix.nxc"
5	50	51		mov __D0readCalibratedValues, __TextOutArgs.Result
5	49	53	#line 49 "C:\Users\Noah\Desktop\nxt\felix\Matrix.nxc"
5	50	53		release __TextOutMutex
5	49	54	#line 49 "C:\Users\Noah\Desktop\nxt\felix\Matrix.nxc"
5	51	54	#line 51 "C:\Users\Noah\Desktop\nxt\felix\Matrix.nxc"
5	51	54	#line 51 "C:\Users\Noah\Desktop\nxt\felix\Matrix.nxc"
5	52	54		mov __fgets_7qG2_str_7qG2_000_inline_readCalibratedValues, __readCalibratedValues_7qG2_buffer_7qG2_000
5	51	56	#line 51 "C:\Users\Noah\Desktop\nxt\felix\Matrix.nxc"
5	52	56		set __fgets_7qG2_num_7qG2_000_inline_readCalibratedValues, 10
5	51	59	#line 51 "C:\Users\Noah\Desktop\nxt\felix\Matrix.nxc"
5	51	59	#line 51 "C:\Users\Noah\Desktop\nxt\felix\Matrix.nxc"
5	52	59		mov __fgets_7qG2_handle_7qG2_000_inline_readCalibratedValues, __readCalibratedValues_7qG2_file_7qG2_000
5	51	61	#line 51 "C:\Users\Noah\Desktop\nxt\felix\Matrix.nxc"
5	19265	61	#line 19265 "NXCDefs.h"
5	19266	61	#pragma macro 7
5	19266	61		mov __FReadArgs.FileHandle, __readCalibratedValues_7qG2_file_7qG2_000
5	19266	63		mov __RLSMaxBytes, __fgets_7qG2_num_7qG2_000_inline_readCalibratedValues
5	19266	65		subcall __readStringLine, __RLSReturnAddress
5	19266	67		mov __D0fgets_inline_readCalibratedValues, __RLSReturn
5	19266	69		mov __fgets_7qG2_str_7qG2_000_inline_readCalibratedValues, __RLSOutput
5	4758	71	#line 4758 "NXCDefs.h"
5	19265	71	#line 19265 "NXCDefs.h"
5	19265	71	#line 19265 "NXCDefs.h"
5	19267	71	#line 19267 "NXCDefs.h"
5	19268	71		strcat __strbuffgets_inline_readCalibratedValues, __fgets_7qG2_str_7qG2_000_inline_readCalibratedValues
5	19267	75	#line 19267 "NXCDefs.h"
5	19267	75	#line 19267 "NXCDefs.h"
5	52	75	#line 52 "C:\Users\Noah\Desktop\nxt\felix\Matrix.nxc"
5	53	75		mov __readCalibratedValues_7qG2_buffer_7qG2_000, __fgets_7qG2_str_7qG2_000_inline_readCalibratedValues
5	52	77	#line 52 "C:\Users\Noah\Desktop\nxt\felix\Matrix.nxc"
5	53	77		mov __strretvalreadCalibratedValues, __strbuffgets_inline_readCalibratedValues
5	52	79	#line 52 "C:\Users\Noah\Desktop\nxt\felix\Matrix.nxc"
5	52	79	#line 52 "C:\Users\Noah\Desktop\nxt\felix\Matrix.nxc"
5	53	79		strcat __strbufreadCalibratedValues, __readCalibratedValues_7qG2_buffer_7qG2_000
5	52	83	#line 52 "C:\Users\Noah\Desktop\nxt\felix\Matrix.nxc"
5	53	83		mov __atoi_7qG2_str_7qG2_000_inline_readCalibratedValues, __strbufreadCalibratedValues
5	19747	85	#line 19747 "NXCDefs.h"
5	19748	85		strcat __strbufatoi_inline_readCalibratedValues, __atoi_7qG2_str_7qG2_000_inline_readCalibratedValues
5	19747	89	#line 19747 "NXCDefs.h"
5	19748	89		strtonum gsensor1, __signed_stack_001atoi_inline_readCalibratedValues, __strbufatoi_inline_readCalibratedValues, 65535, 65535
5	19747	95	#line 19747 "NXCDefs.h"
5	19747	95	#line 19747 "NXCDefs.h"
5	53	95	#line 53 "C:\Users\Noah\Desktop\nxt\felix\Matrix.nxc"
5	53	95	#line 53 "C:\Users\Noah\Desktop\nxt\felix\Matrix.nxc"
5	53	95	#line 53 "C:\Users\Noah\Desktop\nxt\felix\Matrix.nxc"
5	53	95	#line 53 "C:\Users\Noah\Desktop\nxt\felix\Matrix.nxc"
5	54	95		mov __fgets_7qG2_str_7qG2_000_inline_readCalibratedValues, __readCalibratedValues_7qG2_buffer_7qG2_000
5	53	97	#line 53 "C:\Users\Noah\Desktop\nxt\felix\Matrix.nxc"
5	54	97		set __fgets_7qG2_num_7qG2_000_inline_readCalibratedValues, 10
5	53	100	#line 53 "C:\Users\Noah\Desktop\nxt\felix\Matrix.nxc"
5	53	100	#line 53 "C:\Users\Noah\Desktop\nxt\felix\Matrix.nxc"
5	54	100		mov __fgets_7qG2_handle_7qG2_000_inline_readCalibratedValues, __readCalibratedValues_7qG2_file_7qG2_000
5	53	102	#line 53 "C:\Users\Noah\Desktop\nxt\felix\Matrix.nxc"
5	19265	102	#line 19265 "NXCDefs.h"
5	19266	102	#pragma macro 7
5	19266	102		mov __FReadArgs.FileHandle, __readCalibratedValues_7qG2_file_7qG2_000
5	19266	104		mov __RLSMaxBytes, __fgets_7qG2_num_7qG2_000_inline_readCalibratedValues
5	19266	106		subcall __readStringLine, __RLSReturnAddress
5	19266	108		mov __D0fgets_inline_readCalibratedValues, __RLSReturn
5	19266	110		mov __fgets_7qG2_str_7qG2_000_inline_readCalibratedValues, __RLSOutput
5	4814	112	#line 4814 "NXCDefs.h"
5	19265	112	#line 19265 "NXCDefs.h"
5	19265	112	#line 19265 "NXCDefs.h"
5	19267	112	#line 19267 "NXCDefs.h"
5	19268	112		strcat __strbuffgets_inline_readCalibratedValues, __fgets_7qG2_str_7qG2_000_inline_readCalibratedValues
5	19267	116	#line 19267 "NXCDefs.h"
5	19267	116	#line 19267 "NXCDefs.h"
5	54	116	#line 54 "C:\Users\Noah\Desktop\nxt\felix\Matrix.nxc"
5	55	116		mov __readCalibratedValues_7qG2_buffer_7qG2_000, __fgets_7qG2_str_7qG2_000_inline_readCalibratedValues
5	54	118	#line 54 "C:\Users\Noah\Desktop\nxt\felix\Matrix.nxc"
5	55	118		mov __strretvalreadCalibratedValues, __strbuffgets_inline_readCalibratedValues
5	54	120	#line 54 "C:\Users\Noah\Desktop\nxt\felix\Matrix.nxc"
5	54	120	#line 54 "C:\Users\Noah\Desktop\nxt\felix\Matrix.nxc"
5	55	120		strcat __strbufreadCalibratedValues, __readCalibratedValues_7qG2_buffer_7qG2_000
5	54	124	#line 54 "C:\Users\Noah\Desktop\nxt\felix\Matrix.nxc"
5	55	124		mov __atoi_7qG2_str_7qG2_000_inline_readCalibratedValues, __strbufreadCalibratedValues
5	19747	126	#line 19747 "NXCDefs.h"
5	19748	126		strcat __strbufatoi_inline_readCalibratedValues, __atoi_7qG2_str_7qG2_000_inline_readCalibratedValues
5	19747	130	#line 19747 "NXCDefs.h"
5	19748	130		strtonum gsensor2, __signed_stack_001atoi_inline_readCalibratedValues, __strbufatoi_inline_readCalibratedValues, 65535, 65535
5	19747	136	#line 19747 "NXCDefs.h"
5	19747	136	#line 19747 "NXCDefs.h"
5	55	136	#line 55 "C:\Users\Noah\Desktop\nxt\felix\Matrix.nxc"
5	55	136	#line 55 "C:\Users\Noah\Desktop\nxt\felix\Matrix.nxc"
5	55	136	#line 55 "C:\Users\Noah\Desktop\nxt\felix\Matrix.nxc"
5	55	136	#line 55 "C:\Users\Noah\Desktop\nxt\felix\Matrix.nxc"
5	56	136		mov __fgets_7qG2_str_7qG2_000_inline_readCalibratedValues, __readCalibratedValues_7qG2_buffer_7qG2_000
5	55	138	#line 55 "C:\Users\Noah\Desktop\nxt\felix\Matrix.nxc"
5	56	138		set __fgets_7qG2_num_7qG2_000_inline_readCalibratedValues, 10
5	55	141	#line 55 "C:\Users\Noah\Desktop\nxt\felix\Matrix.nxc"
5	55	141	#line 55 "C:\Users\Noah\Desktop\nxt\felix\Matrix.nxc"
5	56	141		mov __fgets_7qG2_handle_7qG2_000_inline_readCalibratedValues, __readCalibratedValues_7qG2_file_7qG2_000
5	55	143	#line 55 "C:\Users\Noah\Desktop\nxt\felix\Matrix.nxc"
5	19265	143	#line 19265 "NXCDefs.h"
5	19266	143	#pragma macro 7
5	19266	143		mov __FReadArgs.FileHandle, __readCalibratedValues_7qG2_file_7qG2_000
5	19266	145		mov __RLSMaxBytes, __fgets_7qG2_num_7qG2_000_inline_readCalibratedValues
5	19266	147		subcall __readStringLine, __RLSReturnAddress
5	19266	149		mov __D0fgets_inline_readCalibratedValues, __RLSReturn
5	19266	151		mov __fgets_7qG2_str_7qG2_000_inline_readCalibratedValues, __RLSOutput
5	4866	153	#line 4866 "NXCDefs.h"
5	19265	153	#line 19265 "NXCDefs.h"
5	19265	153	#line 19265 "NXCDefs.h"
5	19267	153	#line 19267 "NXCDefs.h"
5	19268	153		strcat __strbuffgets_inline_readCalibratedValues, __fgets_7qG2_str_7qG2_000_inline_readCalibratedValues
5	19267	157	#line 19267 "NXCDefs.h"
5	19267	157	#line 19267 "NXCDefs.h"
5	56	157	#line 56 "C:\Users\Noah\Desktop\nxt\felix\Matrix.nxc"
5	57	157		mov __readCalibratedValues_7qG2_buffer_7qG2_000, __fgets_7qG2_str_7qG2_000_inline_readCalibratedValues
5	56	159	#line 56 "C:\Users\Noah\Desktop\nxt\felix\Matrix.nxc"
5	57	159		mov __strretvalreadCalibratedValues, __strbuffgets_inline_readCalibratedValues
5	56	161	#line 56 "C:\Users\Noah\Desktop\nxt\felix\Matrix.nxc"
5	56	161	#line 56 "C:\Users\Noah\Desktop\nxt\felix\Matrix.nxc"
5	57	161		strcat __strbufreadCalibratedValues, __readCalibratedValues_7qG2_buffer_7qG2_000
5	56	165	#line 56 "C:\Users\Noah\Desktop\nxt\felix\Matrix.nxc"
5	57	165		mov __atoi_7qG2_str_7qG2_000_inline_readCalibratedValues, __strbufreadCalibratedValues
5	19747	167	#line 19747 "NXCDefs.h"
5	19748	167		strcat __strbufatoi_inline_readCalibratedValues, __atoi_7qG2_str_7qG2_000_inline_readCalibratedValues
5	19747	171	#line 19747 "NXCDefs.h"
5	19748	171		strtonum gsensor3, __signed_stack_001atoi_inline_readCalibratedValues, __strbufatoi_inline_readCalibratedValues, 65535, 65535
5	19747	177	#line 19747 "NXCDefs.h"
5	19747	177	#line 19747 "NXCDefs.h"
5	57	177	#line 57 "C:\Users\Noah\Desktop\nxt\felix\Matrix.nxc"
5	57	177	#line 57 "C:\Users\Noah\Desktop\nxt\felix\Matrix.nxc"
5	57	177	#line 57 "C:\Users\Noah\Desktop\nxt\felix\Matrix.nxc"
5	57	177	#line 57 "C:\Users\Noah\Desktop\nxt\felix\Matrix.nxc"
5	58	177		mov __fgets_7qG2_str_7qG2_000_inline_readCalibratedValues, __readCalibratedValues_7qG2_buffer_7qG2_000
5	57	179	#line 57 "C:\Users\Noah\Desktop\nxt\felix\Matrix.nxc"
5	58	179		set __fgets_7qG2_num_7qG2_000_inline_readCalibratedValues, 10
5	57	182	#line 57 "C:\Users\Noah\Desktop\nxt\felix\Matrix.nxc"
5	57	182	#line 57 "C:\Users\Noah\Desktop\nxt\felix\Matrix.nxc"
5	58	182		mov __fgets_7qG2_handle_7qG2_000_inline_readCalibratedValues, __readCalibratedValues_7qG2_file_7qG2_000
5	57	184	#line 57 "C:\Users\Noah\Desktop\nxt\felix\Matrix.nxc"
5	19265	184	#line 19265 "NXCDefs.h"
5	19266	184	#pragma macro 7
5	19266	184		mov __FReadArgs.FileHandle, __readCalibratedValues_7qG2_file_7qG2_000
5	19266	186		mov __RLSMaxBytes, __fgets_7qG2_num_7qG2_000_inline_readCalibratedValues
5	19266	188		subcall __readStringLine, __RLSReturnAddress
5	19266	190		mov __D0fgets_inline_readCalibratedValues, __RLSReturn
5	19266	192		mov __fgets_7qG2_str_7qG2_000_inline_readCalibratedValues, __RLSOutput
5	4918	194	#line 4918 "NXCDefs.h"
5	19265	194	#line 19265 "NXCDefs.h"
5	19265	194	#line 19265 "NXCDefs.h"
5	19267	194	#line 19267 "NXCDefs.h"
5	19268	194		strcat __strbuffgets_inline_readCalibratedValues, __fgets_7qG2_str_7qG2_000_inline_readCalibratedValues
5	19267	198	#line 19267 "NXCDefs.h"
5	19267	198	#line 19267 "NXCDefs.h"
5	58	198	#line 58 "C:\Users\Noah\Desktop\nxt\felix\Matrix.nxc"
5	59	198		mov __readCalibratedValues_7qG2_buffer_7qG2_000, __fgets_7qG2_str_7qG2_000_inline_readCalibratedValues
5	58	200	#line 58 "C:\Users\Noah\Desktop\nxt\felix\Matrix.nxc"
5	59	200		mov __strretvalreadCalibratedValues, __strbuffgets_inline_readCalibratedValues
5	58	202	#line 58 "C:\Users\Noah\Desktop\nxt\felix\Matrix.nxc"
5	58	202	#line 58 "C:\Users\Noah\Desktop\nxt\felix\Matrix.nxc"
5	59	202		strcat __strbufreadCalibratedValues, __readCalibratedValues_7qG2_buffer_7qG2_000
5	58	206	#line 58 "C:\Users\Noah\Desktop\nxt\felix\Matrix.nxc"
5	59	206		mov __atoi_7qG2_str_7qG2_000_inline_readCalibratedValues, __strbufreadCalibratedValues
5	19747	208	#line 19747 "NXCDefs.h"
5	19748	208		strcat __strbufatoi_inline_readCalibratedValues, __atoi_7qG2_str_7qG2_000_inline_readCalibratedValues
5	19747	212	#line 19747 "NXCDefs.h"
5	19748	212		strtonum gsensor4, __signed_stack_001atoi_inline_readCalibratedValues, __strbufatoi_inline_readCalibratedValues, 65535, 65535
5	19747	218	#line 19747 "NXCDefs.h"
5	19747	218	#line 19747 "NXCDefs.h"
5	60	218	#line 60 "C:\Users\Noah\Desktop\nxt\felix\Matrix.nxc"
5	60	218	#line 60 "C:\Users\Noah\Desktop\nxt\felix\Matrix.nxc"
5	60	218	#line 60 "C:\Users\Noah\Desktop\nxt\felix\Matrix.nxc"
5	60	218	#line 60 "C:\Users\Noah\Desktop\nxt\felix\Matrix.nxc"
5	61	218		mov __fclose_7qG2_handle_7qG2_000_inline_readCalibratedValues, __readCalibratedValues_7qG2_file_7qG2_000
5	60	220	#line 60 "C:\Users\Noah\Desktop\nxt\felix\Matrix.nxc"
5	19196	220	#line 19196 "NXCDefs.h"
5	19197	220	#pragma macro 5
5	19197	220		acquire __FCMutex
5	19197	221		mov __FCArgs.FileHandle, __fclose_7qG2_handle_7qG2_000_inline_readCalibratedValues
5	19197	223		syscall 5, __FCArgs
5	19197	226		mov __D0fclose_inline_readCalibratedValues, __FCArgs.Result
5	19197	229		release __FCMutex
5	4968	230	#line 4968 "NXCDefs.h"
5	19196	230	#line 19196 "NXCDefs.h"
5	19196	230	#line 19196 "NXCDefs.h"
5	19196	230	#line 19196 "NXCDefs.h"
5	61	230	#line 61 "C:\Users\Noah\Desktop\nxt\felix\Matrix.nxc"
5	62	230		mov __D0readCalibratedValues, __D0fclose_inline_readCalibratedValues
5	61	232	#line 61 "C:\Users\Noah\Desktop\nxt\felix\Matrix.nxc"
5	63	232	#line 63 "C:\Users\Noah\Desktop\nxt\felix\Matrix.nxc"
5	64	232		subret __readCalibratedValues_return
6	6678	0	#line 6678 "NXCDefs.h"
6	6679	0	#pragma macro 6
6	6679	0		acquire __PointOutMutex
6	6679	1		mov __PointOutArgs.Location.X, __constVal200
6	6679	3		mov __PointOutArgs.Location.Y, __constVal200
6	6679	5		mov __PointOutArgs.Options, __constVal1
6	6679	7		syscall 14, __PointOutArgs
6	6679	10		release __PointOutMutex
6	4986	11	#line 4986 "NXCDefs.h"
6	6678	11	#line 6678 "NXCDefs.h"
6	66	11	#line 66 "C:\Users\Noah\Desktop\nxt\felix\Matrix.nxc"
6	66	11	#line 66 "C:\Users\Noah\Desktop\nxt\felix\Matrix.nxc"
6	67	11		set __signed_stack_001calibrateSensors, 0
6	66	14	#line 66 "C:\Users\Noah\Desktop\nxt\felix\Matrix.nxc"
6	66	14	#line 66 "C:\Users\Noah\Desktop\nxt\felix\Matrix.nxc"
6	67	14		set __signed_stack_002calibrateSensors, 0
6	66	17	#line 66 "C:\Users\Noah\Desktop\nxt\felix\Matrix.nxc"
6	66	17	#line 66 "C:\Users\Noah\Desktop\nxt\felix\Matrix.nxc"
6	67	17		strcat __strbufcalibrateSensors, __constStr0013
6	68	21	#line 68 "C:\Users\Noah\Desktop\nxt\felix\Matrix.nxc"
6	69	21		acquire __TextOutMutex
6	68	22	#line 68 "C:\Users\Noah\Desktop\nxt\felix\Matrix.nxc"
6	69	22		mov __TextOutArgs.Location.X, __signed_stack_001calibrateSensors
6	68	24	#line 68 "C:\Users\Noah\Desktop\nxt\felix\Matrix.nxc"
6	69	24		mov __TextOutArgs.Location.Y, __signed_stack_002calibrateSensors
6	68	26	#line 68 "C:\Users\Noah\Desktop\nxt\felix\Matrix.nxc"
6	69	26		set __TextOutArgs.Options, 0
6	68	29	#line 68 "C:\Users\Noah\Desktop\nxt\felix\Matrix.nxc"
6	69	29		mov __TextOutArgs.Text, __strbufcalibrateSensors
6	68	31	#line 68 "C:\Users\Noah\Desktop\nxt\felix\Matrix.nxc"
6	69	31		syscall 13, __TextOutArgs
6	68	34	#line 68 "C:\Users\Noah\Desktop\nxt\felix\Matrix.nxc"
6	69	34		mov __D0calibrateSensors, __TextOutArgs.Result
6	68	36	#line 68 "C:\Users\Noah\Desktop\nxt\felix\Matrix.nxc"
6	69	36		release __TextOutMutex
6	68	37	#line 68 "C:\Users\Noah\Desktop\nxt\felix\Matrix.nxc"
6	68	37	#line 68 "C:\Users\Noah\Desktop\nxt\felix\Matrix.nxc"
6	69	37		getin zwart1, __constVal0, 4
6	68	41	#line 68 "C:\Users\Noah\Desktop\nxt\felix\Matrix.nxc"
6	68	41	#line 68 "C:\Users\Noah\Desktop\nxt\felix\Matrix.nxc"
6	68	41	#line 68 "C:\Users\Noah\Desktop\nxt\felix\Matrix.nxc"
6	69	41	#line 69 "C:\Users\Noah\Desktop\nxt\felix\Matrix.nxc"
6	70	41		getin zwart2, __constVal1, 4
6	69	45	#line 69 "C:\Users\Noah\Desktop\nxt\felix\Matrix.nxc"
6	69	45	#line 69 "C:\Users\Noah\Desktop\nxt\felix\Matrix.nxc"
6	69	45	#line 69 "C:\Users\Noah\Desktop\nxt\felix\Matrix.nxc"
6	70	45	#line 70 "C:\Users\Noah\Desktop\nxt\felix\Matrix.nxc"
6	71	45		getin zwart3, __constVal2, 4
6	70	49	#line 70 "C:\Users\Noah\Desktop\nxt\felix\Matrix.nxc"
6	70	49	#line 70 "C:\Users\Noah\Desktop\nxt\felix\Matrix.nxc"
6	70	49	#line 70 "C:\Users\Noah\Desktop\nxt\felix\Matrix.nxc"
6	71	49	#line 71 "C:\Users\Noah\Desktop\nxt\felix\Matrix.nxc"
6	72	49		getin zwart4, __constVal3, 4
6	71	53	#line 71 "C:\Users\Noah\Desktop\nxt\felix\Matrix.nxc"
6	71	53	#line 71 "C:\Users\Noah\Desktop\nxt\felix\Matrix.nxc"
6	71	53	#line 71 "C:\Users\Noah\Desktop\nxt\felix\Matrix.nxc"
6	72	53	#line 72 "C:\Users\Noah\Desktop\nxt\felix\Matrix.nxc"
6	73	53		set __signed_stack_001calibrateSensors, 3
6	72	56	#line 72 "C:\Users\Noah\Desktop\nxt\felix\Matrix.nxc"
6	72	56	#line 72 "C:\Users\Noah\Desktop\nxt\felix\Matrix.nxc"
6	73	56		set __D0calibrateSensors, 0
6	72	59	#line 72 "C:\Users\Noah\Desktop\nxt\felix\Matrix.nxc"
6	73	59		acquire __RBtnMutex
6	72	60	#line 72 "C:\Users\Noah\Desktop\nxt\felix\Matrix.nxc"
6	73	60		mov __RBtnArgs.Index, __signed_stack_001calibrateSensors
6	72	62	#line 72 "C:\Users\Noah\Desktop\nxt\felix\Matrix.nxc"
6	73	62		mov __RBtnArgs.Reset, __D0calibrateSensors
6	72	64	#line 72 "C:\Users\Noah\Desktop\nxt\felix\Matrix.nxc"
6	73	64		syscall 20, __RBtnArgs
6	72	67	#line 72 "C:\Users\Noah\Desktop\nxt\felix\Matrix.nxc"
6	73	67		mov __D0calibrateSensors, __RBtnArgs.Pressed
6	72	69	#line 72 "C:\Users\Noah\Desktop\nxt\felix\Matrix.nxc"
6	73	69		release __RBtnMutex
6	72	70	#line 72 "C:\Users\Noah\Desktop\nxt\felix\Matrix.nxc"
6	73	70		not __D0calibrateSensors, __D0calibrateSensors
6	73	73	#line 73 "C:\Users\Noah\Desktop\nxt\felix\Matrix.nxc"
6	74	73		tst 5, __D0calibrateSensors, __D0calibrateSensors
6	73	76	#line 73 "C:\Users\Noah\Desktop\nxt\felix\Matrix.nxc"
6	74	76		brtst 4, __ASM_Label_574, __D0calibrateSensors
6	73	79	#line 73 "C:\Users\Noah\Desktop\nxt\felix\Matrix.nxc"
6	73	79	#line 73 "C:\Users\Noah\Desktop\nxt\felix\Matrix.nxc"
6	74	79		jmp __ASM_Label_573
6	73	81	#line 73 "C:\Users\Noah\Desktop\nxt\felix\Matrix.nxc"
6	73	81	#line 73 "C:\Users\Noah\Desktop\nxt\felix\Matrix.nxc"
6	74	81		set __Wait_7qG2_ms_7qG2_000_inline_calibrateSensors, 500
6	73	84	#line 73 "C:\Users\Noah\Desktop\nxt\felix\Matrix.nxc"
6	8551	84	#line 8551 "NXCDefs.h"
6	8552	84		wait2 NA, __Wait_7qG2_ms_7qG2_000_inline_calibrateSensors
6	8551	87	#line 8551 "NXCDefs.h"
6	74	87	#line 74 "C:\Users\Noah\Desktop\nxt\felix\Matrix.nxc"
6	6678	87	#line 6678 "NXCDefs.h"
6	6679	87	#pragma macro 6
6	6679	87		acquire __PointOutMutex
6	6679	88		mov __PointOutArgs.Location.X, __constVal200
6	6679	90		mov __PointOutArgs.Location.Y, __constVal200
6	6679	92		mov __PointOutArgs.Options, __constVal1
6	6679	94		syscall 14, __PointOutArgs
6	6679	97		release __PointOutMutex
6	5101	98	#line 5101 "NXCDefs.h"
6	6678	98	#line 6678 "NXCDefs.h"
6	75	98	#line 75 "C:\Users\Noah\Desktop\nxt\felix\Matrix.nxc"
6	75	98	#line 75 "C:\Users\Noah\Desktop\nxt\felix\Matrix.nxc"
6	76	98		set __signed_stack_001calibrateSensors, 0
6	75	101	#line 75 "C:\Users\Noah\Desktop\nxt\felix\Matrix.nxc"
6	75	101	#line 75 "C:\Users\Noah\Desktop\nxt\felix\Matrix.nxc"
6	76	101		set __signed_stack_002calibrateSensors, 0
6	75	104	#line 75 "C:\Users\Noah\Desktop\nxt\felix\Matrix.nxc"
6	75	104	#line 75 "C:\Users\Noah\Desktop\nxt\felix\Matrix.nxc"
6	76	104		strcat __strbufcalibrateSensors, __constStr0014
6	77	108	#line 77 "C:\Users\Noah\Desktop\nxt\felix\Matrix.nxc"
6	78	108		acquire __TextOutMutex
6	77	109	#line 77 "C:\Users\Noah\Desktop\nxt\felix\Matrix.nxc"
6	78	109		mov __TextOutArgs.Location.X, __signed_stack_001calibrateSensors
6	77	111	#line 77 "C:\Users\Noah\Desktop\nxt\felix\Matrix.nxc"
6	78	111		mov __TextOutArgs.Location.Y, __signed_stack_002calibrateSensors
6	77	113	#line 77 "C:\Users\Noah\Desktop\nxt\felix\Matrix.nxc"
6	78	113		set __TextOutArgs.Options, 0
6	77	116	#line 77 "C:\Users\Noah\Desktop\nxt\felix\Matrix.nxc"
6	78	116		mov __TextOutArgs.Text, __strbufcalibrateSensors
6	77	118	#line 77 "C:\Users\Noah\Desktop\nxt\felix\Matrix.nxc"
6	78	118		syscall 13, __TextOutArgs
6	77	121	#line 77 "C:\Users\Noah\Desktop\nxt\felix\Matrix.nxc"
6	78	121		mov __D0calibrateSensors, __TextOutArgs.Result
6	77	123	#line 77 "C:\Users\Noah\Desktop\nxt\felix\Matrix.nxc"
6	78	123		release __TextOutMutex
6	77	124	#line 77 "C:\Users\Noah\Desktop\nxt\felix\Matrix.nxc"
6	77	124	#line 77 "C:\Users\Noah\Desktop\nxt\felix\Matrix.nxc"
6	78	124		getin wit1, __constVal0, 4
6	77	128	#line 77 "C:\Users\Noah\Desktop\nxt\felix\Matrix.nxc"
6	77	128	#line 77 "C:\Users\Noah\Desktop\nxt\felix\Matrix.nxc"
6	77	128	#line 77 "C:\Users\Noah\Desktop\nxt\felix\Matrix.nxc"
6	78	128	#line 78 "C:\Users\Noah\Desktop\nxt\felix\Matrix.nxc"
6	79	128		getin wit2, __constVal1, 4
6	78	132	#line 78 "C:\Users\Noah\Desktop\nxt\felix\Matrix.nxc"
6	78	132	#line 78 "C:\Users\Noah\Desktop\nxt\felix\Matrix.nxc"
6	78	132	#line 78 "C:\Users\Noah\Desktop\nxt\felix\Matrix.nxc"
6	79	132	#line 79 "C:\Users\Noah\Desktop\nxt\felix\Matrix.nxc"
6	80	132		getin wit3, __constVal2, 4
6	79	136	#line 79 "C:\Users\Noah\Desktop\nxt\felix\Matrix.nxc"
6	79	136	#line 79 "C:\Users\Noah\Desktop\nxt\felix\Matrix.nxc"
6	79	136	#line 79 "C:\Users\Noah\Desktop\nxt\felix\Matrix.nxc"
6	80	136	#line 80 "C:\Users\Noah\Desktop\nxt\felix\Matrix.nxc"
6	81	136		getin wit4, __constVal3, 4
6	80	140	#line 80 "C:\Users\Noah\Desktop\nxt\felix\Matrix.nxc"
6	80	140	#line 80 "C:\Users\Noah\Desktop\nxt\felix\Matrix.nxc"
6	80	140	#line 80 "C:\Users\Noah\Desktop\nxt\felix\Matrix.nxc"
6	81	140	#line 81 "C:\Users\Noah\Desktop\nxt\felix\Matrix.nxc"
6	82	140		set __signed_stack_001calibrateSensors, 3
6	81	143	#line 81 "C:\Users\Noah\Desktop\nxt\felix\Matrix.nxc"
6	81	143	#line 81 "C:\Users\Noah\Desktop\nxt\felix\Matrix.nxc"
6	82	143		set __D0calibrateSensors, 0
6	81	146	#line 81 "C:\Users\Noah\Desktop\nxt\felix\Matrix.nxc"
6	82	146		acquire __RBtnMutex
6	81	147	#line 81 "C:\Users\Noah\Desktop\nxt\felix\Matrix.nxc"
6	82	147		mov __RBtnArgs.Index, __signed_stack_001calibrateSensors
6	81	149	#line 81 "C:\Users\Noah\Desktop\nxt\felix\Matrix.nxc"
6	82	149		mov __RBtnArgs.Reset, __D0calibrateSensors
6	81	151	#line 81 "C:\Users\Noah\Desktop\nxt\felix\Matrix.nxc"
6	82	151		syscall 20, __RBtnArgs
6	81	154	#line 81 "C:\Users\Noah\Desktop\nxt\felix\Matrix.nxc"
6	82	154		mov __D0calibrateSensors, __RBtnArgs.Pressed
6	81	156	#line 81 "C:\Users\Noah\Desktop\nxt\felix\Matrix.nxc"
6	82	156		release __RBtnMutex
6	81	157	#line 81 "C:\Users\Noah\Desktop\nxt\felix\Matrix.nxc"
6	82	157		not __D0calibrateSensors, __D0calibrateSensors
6	82	160	#line 82 "C:\Users\Noah\Desktop\nxt\felix\Matrix.nxc"
6	83	160		tst 5, __D0calibrateSensors, __D0calibrateSensors
6	82	163	#line 82 "C:\Users\Noah\Desktop\nxt\felix\Matrix.nxc"
6	83	163		brtst 4, __ASM_Label_598, __D0calibrateSensors
6	82	166	#line 82 "C:\Users\Noah\Desktop\nxt\felix\Matrix.nxc"
6	82	166	#line 82 "C:\Users\Noah\Desktop\nxt\felix\Matrix.nxc"
6	83	166		jmp __ASM_Label_597
6	82	168	#line 82 "C:\Users\Noah\Desktop\nxt\felix\Matrix.nxc"
6	82	168	#line 82 "C:\Users\Noah\Desktop\nxt\felix\Matrix.nxc"
6	83	168		set __Wait_7qG2_ms_7qG2_000_inline_calibrateSensors, 500
6	82	171	#line 82 "C:\Users\Noah\Desktop\nxt\felix\Matrix.nxc"
6	8551	171	#line 8551 "NXCDefs.h"
6	8552	171		wait2 NA, __Wait_7qG2_ms_7qG2_000_inline_calibrateSensors
6	8551	174	#line 8551 "NXCDefs.h"
6	83	174	#line 83 "C:\Users\Noah\Desktop\nxt\felix\Matrix.nxc"
6	6678	174	#line 6678 "NXCDefs.h"
6	6679	174	#pragma macro 6
6	6679	174		acquire __PointOutMutex
6	6679	175		mov __PointOutArgs.Location.X, __constVal200
6	6679	177		mov __PointOutArgs.Location.Y, __constVal200
6	6679	179		mov __PointOutArgs.Options, __constVal1
6	6679	181		syscall 14, __PointOutArgs
6	6679	184		release __PointOutMutex
6	5212	185	#line 5212 "NXCDefs.h"
6	6678	185	#line 6678 "NXCDefs.h"
6	84	185	#line 84 "C:\Users\Noah\Desktop\nxt\felix\Matrix.nxc"
6	84	185	#line 84 "C:\Users\Noah\Desktop\nxt\felix\Matrix.nxc"
6	85	185		set __signed_stack_001calibrateSensors, 0
6	84	188	#line 84 "C:\Users\Noah\Desktop\nxt\felix\Matrix.nxc"
6	84	188	#line 84 "C:\Users\Noah\Desktop\nxt\felix\Matrix.nxc"
6	85	188		set __signed_stack_002calibrateSensors, 0
6	84	191	#line 84 "C:\Users\Noah\Desktop\nxt\felix\Matrix.nxc"
6	84	191	#line 84 "C:\Users\Noah\Desktop\nxt\felix\Matrix.nxc"
6	85	191		strcat __strbufcalibrateSensors, __constStr0015
6	86	195	#line 86 "C:\Users\Noah\Desktop\nxt\felix\Matrix.nxc"
6	87	195		acquire __TextOutMutex
6	86	196	#line 86 "C:\Users\Noah\Desktop\nxt\felix\Matrix.nxc"
6	87	196		mov __TextOutArgs.Location.X, __signed_stack_001calibrateSensors
6	86	198	#line 86 "C:\Users\Noah\Desktop\nxt\felix\Matrix.nxc"
6	87	198		mov __TextOutArgs.Location.Y, __signed_stack_002calibrateSensors
6	86	200	#line 86 "C:\Users\Noah\Desktop\nxt\felix\Matrix.nxc"
6	87	200		set __TextOutArgs.Options, 0
6	86	203	#line 86 "C:\Users\Noah\Desktop\nxt\felix\Matrix.nxc"
6	87	203		mov __TextOutArgs.Text, __strbufcalibrateSensors
6	86	205	#line 86 "C:\Users\Noah\Desktop\nxt\felix\Matrix.nxc"
6	87	205		syscall 13, __TextOutArgs
6	86	208	#line 86 "C:\Users\Noah\Desktop\nxt\felix\Matrix.nxc"
6	87	208		mov __D0calibrateSensors, __TextOutArgs.Result
6	86	210	#line 86 "C:\Users\Noah\Desktop\nxt\felix\Matrix.nxc"
6	87	210		release __TextOutMutex
6	86	211	#line 86 "C:\Users\Noah\Desktop\nxt\felix\Matrix.nxc"
6	86	211	#line 86 "C:\Users\Noah\Desktop\nxt\felix\Matrix.nxc"
6	87	211		mov __signed_stack_001calibrateSensors, zwart1
6	86	213	#line 86 "C:\Users\Noah\Desktop\nxt\felix\Matrix.nxc"
6	86	213	#line 86 "C:\Users\Noah\Desktop\nxt\felix\Matrix.nxc"
6	87	213		mov __D0calibrateSensors, wit1
6	86	215	#line 86 "C:\Users\Noah\Desktop\nxt\felix\Matrix.nxc"
6	87	215		add __signed_stack_001calibrateSensors, __signed_stack_001calibrateSensors, __D0calibrateSensors
6	86	219	#line 86 "C:\Users\Noah\Desktop\nxt\felix\Matrix.nxc"
6	86	219	#line 86 "C:\Users\Noah\Desktop\nxt\felix\Matrix.nxc"
6	87	219		set __D0calibrateSensors, 2
6	86	222	#line 86 "C:\Users\Noah\Desktop\nxt\felix\Matrix.nxc"
6	87	222		div __signed_stack_001calibrateSensors, __signed_stack_001calibrateSensors, __D0calibrateSensors
6	86	226	#line 86 "C:\Users\Noah\Desktop\nxt\felix\Matrix.nxc"
6	87	226	#line 87 "C:\Users\Noah\Desktop\nxt\felix\Matrix.nxc"
6	88	226		set __D0calibrateSensors, 20
6	87	229	#line 87 "C:\Users\Noah\Desktop\nxt\felix\Matrix.nxc"
6	88	229		add gsensor1, __signed_stack_001calibrateSensors, __D0calibrateSensors
6	87	233	#line 87 "C:\Users\Noah\Desktop\nxt\felix\Matrix.nxc"
6	87	233	#line 87 "C:\Users\Noah\Desktop\nxt\felix\Matrix.nxc"
6	87	233	#line 87 "C:\Users\Noah\Desktop\nxt\felix\Matrix.nxc"
6	88	233		mov __signed_stack_001calibrateSensors, zwart2
6	87	235	#line 87 "C:\Users\Noah\Desktop\nxt\felix\Matrix.nxc"
6	87	235	#line 87 "C:\Users\Noah\Desktop\nxt\felix\Matrix.nxc"
6	88	235		mov __D0calibrateSensors, wit2
6	87	237	#line 87 "C:\Users\Noah\Desktop\nxt\felix\Matrix.nxc"
6	88	237		add __signed_stack_001calibrateSensors, __signed_stack_001calibrateSensors, __D0calibrateSensors
6	87	241	#line 87 "C:\Users\Noah\Desktop\nxt\felix\Matrix.nxc"
6	87	241	#line 87 "C:\Users\Noah\Desktop\nxt\felix\Matrix.nxc"
6	88	241		set __D0calibrateSensors, 2
6	87	244	#line 87 "C:\Users\Noah\Desktop\nxt\felix\Matrix.nxc"
6	88	244		div __signed_stack_001calibrateSensors, __signed_stack_001calibrateSensors, __D0calibrateSensors
6	87	248	#line 87 "C:\Users\Noah\Desktop\nxt\felix\Matrix.nxc"
6	88	248	#line 88 "C:\Users\Noah\Desktop\nxt\felix\Matrix.nxc"
6	89	248		set __D0calibrateSensors, 20
6	88	251	#line 88 "C:\Users\Noah\Desktop\nxt\felix\Matrix.nxc"
6	89	251		add gsensor2, __signed_stack_001calibrateSensors, __D0calibrateSensors
6	88	255	#line 88 "C:\Users\Noah\Desktop\nxt\felix\Matrix.nxc"
6	88	255	#line 88 "C:\Users\Noah\Desktop\nxt\felix\Matrix.nxc"
6	88	255	#line 88 "C:\Users\Noah\Desktop\nxt\felix\Matrix.nxc"
6	89	255		mov __signed_stack_001calibrateSensors, zwart3
6	88	257	#line 88 "C:\Users\Noah\Desktop\nxt\felix\Matrix.nxc"
6	88	257	#line 88 "C:\Users\Noah\Desktop\nxt\felix\Matrix.nxc"
6	89	257		mov __D0calibrateSensors, wit3
6	88	259	#line 88 "C:\Users\Noah\Desktop\nxt\felix\Matrix.nxc"
6	89	259		add __signed_stack_001calibrateSensors, __signed_stack_001calibrateSensors, __D0calibrateSensors
6	88	263	#line 88 "C:\Users\Noah\Desktop\nxt\felix\Matrix.nxc"
6	88	263	#line 88 "C:\Users\Noah\Desktop\nxt\felix\Matrix.nxc"
6	89	263		set __D0calibrateSensors, 2
6	88	266	#line 88 "C:\Users\Noah\Desktop\nxt\felix\Matrix.nxc"
6	89	266		div __signed_stack_001calibrateSensors, __signed_stack_001calibrateSensors, __D0calibrateSensors
6	88	270	#line 88 "C:\Users\Noah\Desktop\nxt\felix\Matrix.nxc"
6	89	270	#line 89 "C:\Users\Noah\Desktop\nxt\felix\Matrix.nxc"
6	90	270		set __D0calibrateSensors, 20
6	89	273	#line 89 "C:\Users\Noah\Desktop\nxt\felix\Matrix.nxc"
6	90	273		add gsensor3, __signed_stack_001calibrateSensors, __D0calibrateSensors
6	89	277	#line 89 "C:\Users\Noah\Desktop\nxt\felix\Matrix.nxc"
6	89	277	#line 89 "C:\Users\Noah\Desktop\nxt\felix\Matrix.nxc"
6	89	277	#line 89 "C:\Users\Noah\Desktop\nxt\felix\Matrix.nxc"
6	90	277		mov __signed_stack_001calibrateSensors, zwart4
6	89	279	#line 89 "C:\Users\Noah\Desktop\nxt\felix\Matrix.nxc"
6	89	279	#line 89 "C:\Users\Noah\Desktop\nxt\felix\Matrix.nxc"
6	90	279		mov __D0calibrateSensors, wit4
6	89	281	#line 89 "C:\Users\Noah\Desktop\nxt\felix\Matrix.nxc"
6	90	281		add __signed_stack_001calibrateSensors, __signed_stack_001calibrateSensors, __D0calibrateSensors
6	89	285	#line 89 "C:\Users\Noah\Desktop\nxt\felix\Matrix.nxc"
6	89	285	#line 89 "C:\Users\Noah\Desktop\nxt\felix\Matrix.nxc"
6	90	285		set __D0calibrateSensors, 2
6	89	288	#line 89 "C:\Users\Noah\Desktop\nxt\felix\Matrix.nxc"
6	90	288		div __signed_stack_001calibrateSensors, __signed_stack_001calibrateSensors, __D0calibrateSensors
6	89	292	#line 89 "C:\Users\Noah\Desktop\nxt\felix\Matrix.nxc"
6	90	292	#line 90 "C:\Users\Noah\Desktop\nxt\felix\Matrix.nxc"
6	91	292		set __D0calibrateSensors, 20
6	90	295	#line 90 "C:\Users\Noah\Desktop\nxt\felix\Matrix.nxc"
6	91	295		add gsensor4, __signed_stack_001calibrateSensors, __D0calibrateSensors
6	90	299	#line 90 "C:\Users\Noah\Desktop\nxt\felix\Matrix.nxc"
6	90	299	#line 90 "C:\Users\Noah\Desktop\nxt\felix\Matrix.nxc"
6	92	299	#line 92 "C:\Users\Noah\Desktop\nxt\felix\Matrix.nxc"
6	93	299		subcall saveCalibratedValues, __saveCalibratedValues_return
6	92	301	#line 92 "C:\Users\Noah\Desktop\nxt\felix\Matrix.nxc"
6	92	301	#line 92 "C:\Users\Noah\Desktop\nxt\felix\Matrix.nxc"
6	93	301		set __signed_stack_001calibrateSensors, 3
6	92	304	#line 92 "C:\Users\Noah\Desktop\nxt\felix\Matrix.nxc"
6	92	304	#line 92 "C:\Users\Noah\Desktop\nxt\felix\Matrix.nxc"
6	93	304		set __D0calibrateSensors, 0
6	92	307	#line 92 "C:\Users\Noah\Desktop\nxt\felix\Matrix.nxc"
6	93	307		acquire __RBtnMutex
6	92	308	#line 92 "C:\Users\Noah\Desktop\nxt\felix\Matrix.nxc"
6	93	308		mov __RBtnArgs.Index, __signed_stack_001calibrateSensors
6	92	310	#line 92 "C:\Users\Noah\Desktop\nxt\felix\Matrix.nxc"
6	93	310		mov __RBtnArgs.Reset, __D0calibrateSensors
6	92	312	#line 92 "C:\Users\Noah\Desktop\nxt\felix\Matrix.nxc"
6	93	312		syscall 20, __RBtnArgs
6	92	315	#line 92 "C:\Users\Noah\Desktop\nxt\felix\Matrix.nxc"
6	93	315		mov __D0calibrateSensors, __RBtnArgs.Pressed
6	92	317	#line 92 "C:\Users\Noah\Desktop\nxt\felix\Matrix.nxc"
6	93	317		release __RBtnMutex
6	92	318	#line 92 "C:\Users\Noah\Desktop\nxt\felix\Matrix.nxc"
6	93	318		not __D0calibrateSensors, __D0calibrateSensors
6	93	321	#line 93 "C:\Users\Noah\Desktop\nxt\felix\Matrix.nxc"
6	94	321		tst 5, __D0calibrateSensors, __D0calibrateSensors
6	93	324	#line 93 "C:\Users\Noah\Desktop\nxt\felix\Matrix.nxc"
6	94	324		brtst 4, __ASM_Label_630, __D0calibrateSensors
6	93	327	#line 93 "C:\Users\Noah\Desktop\nxt\felix\Matrix.nxc"
6	93	327	#line 93 "C:\Users\Noah\Desktop\nxt\felix\Matrix.nxc"
6	94	327		jmp __ASM_Label_629
6	93	329	#line 93 "C:\Users\Noah\Desktop\nxt\felix\Matrix.nxc"
6	6678	329	#line 6678 "NXCDefs.h"
6	6679	329	#pragma macro 6
6	6679	329		acquire __PointOutMutex
6	6679	330		mov __PointOutArgs.Location.X, __constVal200
6	6679	332		mov __PointOutArgs.Location.Y, __constVal200
6	6679	334		mov __PointOutArgs.Options, __constVal1
6	6679	336		syscall 14, __PointOutArgs
6	6679	339		release __PointOutMutex
6	5418	340	#line 5418 "NXCDefs.h"
6	6678	340	#line 6678 "NXCDefs.h"
6	95	340	#line 95 "C:\Users\Noah\Desktop\nxt\felix\Matrix.nxc"
6	98	340	#line 98 "C:\Users\Noah\Desktop\nxt\felix\Matrix.nxc"
6	99	340		subret __calibrateSensors_return
7	101	0	#line 101 "C:\Users\Noah\Desktop\nxt\felix\Matrix.nxc"
7	102	0		set __D0startEngine, 1
7	102	3	#line 102 "C:\Users\Noah\Desktop\nxt\felix\Matrix.nxc"
7	103	3		tst 5, __D0startEngine, __D0startEngine
7	102	6	#line 102 "C:\Users\Noah\Desktop\nxt\felix\Matrix.nxc"
7	103	6		brtst 4, __ASM_Label_640, __D0startEngine
7	102	9	#line 102 "C:\Users\Noah\Desktop\nxt\felix\Matrix.nxc"
7	103	9		set __signed_stack_001startEngine, 0
7	102	12	#line 102 "C:\Users\Noah\Desktop\nxt\felix\Matrix.nxc"
7	102	12	#line 102 "C:\Users\Noah\Desktop\nxt\felix\Matrix.nxc"
7	103	12		set __signed_stack_002startEngine, 56
7	102	15	#line 102 "C:\Users\Noah\Desktop\nxt\felix\Matrix.nxc"
7	102	15	#line 102 "C:\Users\Noah\Desktop\nxt\felix\Matrix.nxc"
7	103	15		getin __D0startEngine, __constVal0, 4
7	102	19	#line 102 "C:\Users\Noah\Desktop\nxt\felix\Matrix.nxc"
7	103	19		numtostr __strretvalstartEngine, __D0startEngine
7	102	22	#line 102 "C:\Users\Noah\Desktop\nxt\felix\Matrix.nxc"
7	103	22		mov __ArrHelper__startEngine_244_0, __strretvalstartEngine
7	102	24	#line 102 "C:\Users\Noah\Desktop\nxt\felix\Matrix.nxc"
7	103	24		mov __ArrHelper__startEngine_244_1, __constStr0016
7	102	26	#line 102 "C:\Users\Noah\Desktop\nxt\felix\Matrix.nxc"
7	103	26		getin __D0startEngine, __constVal1, 4
7	102	30	#line 102 "C:\Users\Noah\Desktop\nxt\felix\Matrix.nxc"
7	103	30		numtostr __strretvalstartEngine, __D0startEngine
7	102	33	#line 102 "C:\Users\Noah\Desktop\nxt\felix\Matrix.nxc"
7	103	33		mov __ArrHelper__startEngine_244_2, __strretvalstartEngine
7	102	35	#line 102 "C:\Users\Noah\Desktop\nxt\felix\Matrix.nxc"
7	103	35		mov __ArrHelper__startEngine_244_3, __constStr0016
7	102	37	#line 102 "C:\Users\Noah\Desktop\nxt\felix\Matrix.nxc"
7	103	37		getin __D0startEngine, __constVal2, 4
7	102	41	#line 102 "C:\Users\Noah\Desktop\nxt\felix\Matrix.nxc"
7	103	41		numtostr __strretvalstartEngine, __D0startEngine
7	102	44	#line 102 "C:\Users\Noah\Desktop\nxt\felix\Matrix.nxc"
7	103	44		mov __ArrHelper__startEngine_244_4, __strretvalstartEngine
7	102	46	#line 102 "C:\Users\Noah\Desktop\nxt\felix\Matrix.nxc"
7	103	46		mov __ArrHelper__startEngine_244_5, __constStr0016
7	102	48	#line 102 "C:\Users\Noah\Desktop\nxt\felix\Matrix.nxc"
7	103	48		getin __D0startEngine, __constVal3, 4
7	102	52	#line 102 "C:\Users\Noah\Desktop\nxt\felix\Matrix.nxc"
7	103	52		numtostr __strretvalstartEngine, __D0startEngine
7	102	55	#line 102 "C:\Users\Noah\Desktop\nxt\felix\Matrix.nxc"
7	103	55		strcat __strbufstartEngine, __strretvalstartEngine
7	102	59	#line 102 "C:\Users\Noah\Desktop\nxt\felix\Matrix.nxc"
7	103	59		mov __ArrHelper__startEngine_244_6, __strbufstartEngine
7	102	61	#line 102 "C:\Users\Noah\Desktop\nxt\felix\Matrix.nxc"
7	103	61		strcat __strbufstartEngine, __ArrHelper__startEngine_244_5, __ArrHelper__startEngine_244_6
7	102	66	#line 102 "C:\Users\Noah\Desktop\nxt\felix\Matrix.nxc"
7	103	66		mov __ArrHelper__startEngine_244_5, __strbufstartEngine
7	102	68	#line 102 "C:\Users\Noah\Desktop\nxt\felix\Matrix.nxc"
7	103	68		strcat __strbufstartEngine, __ArrHelper__startEngine_244_4, __ArrHelper__startEngine_244_5
7	102	73	#line 102 "C:\Users\Noah\Desktop\nxt\felix\Matrix.nxc"
7	103	73		mov __ArrHelper__startEngine_244_4, __strbufstartEngine
7	102	75	#line 102 "C:\Users\Noah\Desktop\nxt\felix\Matrix.nxc"
7	103	75		strcat __strbufstartEngine, __ArrHelper__startEngine_244_3, __ArrHelper__startEngine_244_4
7	102	80	#line 102 "C:\Users\Noah\Desktop\nxt\felix\Matrix.nxc"
7	103	80		mov __ArrHelper__startEngine_244_3, __strbufstartEngine
7	102	82	#line 102 "C:\Users\Noah\Desktop\nxt\felix\Matrix.nxc"
7	103	82		strcat __strbufstartEngine, __ArrHelper__startEngine_244_2, __ArrHelper__startEngine_244_3
7	102	87	#line 102 "C:\Users\Noah\Desktop\nxt\felix\Matrix.nxc"
7	103	87		mov __ArrHelper__startEngine_244_2, __strbufstartEngine
7	102	89	#line 102 "C:\Users\Noah\Desktop\nxt\felix\Matrix.nxc"
7	103	89		strcat __strbufstartEngine, __ArrHelper__startEngine_244_1, __ArrHelper__startEngine_244_2
7	102	94	#line 102 "C:\Users\Noah\Desktop\nxt\felix\Matrix.nxc"
7	103	94		mov __ArrHelper__startEngine_244_1, __strbufstartEngine
7	102	96	#line 102 "C:\Users\Noah\Desktop\nxt\felix\Matrix.nxc"
7	103	96		strcat __strbufstartEngine, __ArrHelper__startEngine_244_0, __ArrHelper__startEngine_244_1
7	103	101	#line 103 "C:\Users\Noah\Desktop\nxt\felix\Matrix.nxc"
7	104	101		acquire __TextOutMutex
7	103	102	#line 103 "C:\Users\Noah\Desktop\nxt\felix\Matrix.nxc"
7	104	102		mov __TextOutArgs.Location.X, __signed_stack_001startEngine
7	103	104	#line 103 "C:\Users\Noah\Desktop\nxt\felix\Matrix.nxc"
7	104	104		mov __TextOutArgs.Location.Y, __signed_stack_002startEngine
7	103	106	#line 103 "C:\Users\Noah\Desktop\nxt\felix\Matrix.nxc"
7	104	106		set __TextOutArgs.Options, 0
7	103	109	#line 103 "C:\Users\Noah\Desktop\nxt\felix\Matrix.nxc"
7	104	109		mov __TextOutArgs.Text, __strbufstartEngine
7	103	111	#line 103 "C:\Users\Noah\Desktop\nxt\felix\Matrix.nxc"
7	104	111		syscall 13, __TextOutArgs
7	103	114	#line 103 "C:\Users\Noah\Desktop\nxt\felix\Matrix.nxc"
7	104	114		mov __D0startEngine, __TextOutArgs.Result
7	103	116	#line 103 "C:\Users\Noah\Desktop\nxt\felix\Matrix.nxc"
7	104	116		release __TextOutMutex
7	103	117	#line 103 "C:\Users\Noah\Desktop\nxt\felix\Matrix.nxc"
7	103	117	#line 103 "C:\Users\Noah\Desktop\nxt\felix\Matrix.nxc"
7	103	117	#line 103 "C:\Users\Noah\Desktop\nxt\felix\Matrix.nxc"
7	104	117		set __signed_stack_001startEngine, 100
7	103	120	#line 103 "C:\Users\Noah\Desktop\nxt\felix\Matrix.nxc"
7	103	120	#line 103 "C:\Users\Noah\Desktop\nxt\felix\Matrix.nxc"
7	104	120		set __D0startEngine, 0
7	105	123	#line 105 "C:\Users\Noah\Desktop\nxt\felix\Matrix.nxc"
7	106	123	#pragma macro 7
7	106	123		setout __OUT_BC, 2, __signed_stack_001startEngine, 1, __constVal7, 8, __D0startEngine, 6, __constVal32, 7, __constVal0, 5, __constVal0, 10, __constVal96, 11, __constVal32, 12, __constVal32, 0, __constVal63
7	5557	146	#line 5557 "C:\Users\Noah\Desktop\nxt\felix\Matrix.nxc"
7	105	146	#line 105 "C:\Users\Noah\Desktop\nxt\felix\Matrix.nxc"
7	105	146	#line 105 "C:\Users\Noah\Desktop\nxt\felix\Matrix.nxc"
7	106	146		getin __signed_stack_001startEngine, __constVal0, 4
7	105	150	#line 105 "C:\Users\Noah\Desktop\nxt\felix\Matrix.nxc"
7	105	150	#line 105 "C:\Users\Noah\Desktop\nxt\felix\Matrix.nxc"
7	106	150		mov __D0startEngine, gsensor1
7	105	152	#line 105 "C:\Users\Noah\Desktop\nxt\felix\Matrix.nxc"
7	106	152		cmp 0, __D0startEngine, __signed_stack_001startEngine, __D0startEngine
7	105	156	#line 105 "C:\Users\Noah\Desktop\nxt\felix\Matrix.nxc"
7	106	156		brtst 4, __ASM_Label_660, __D0startEngine
7	105	159	#line 105 "C:\Users\Noah\Desktop\nxt\felix\Matrix.nxc"
7	106	159		getin __signed_stack_001startEngine, __constVal1, 4
7	105	163	#line 105 "C:\Users\Noah\Desktop\nxt\felix\Matrix.nxc"
7	105	163	#line 105 "C:\Users\Noah\Desktop\nxt\felix\Matrix.nxc"
7	106	163		mov __D0startEngine, gsensor2
7	105	165	#line 105 "C:\Users\Noah\Desktop\nxt\felix\Matrix.nxc"
7	106	165		cmp 0, __D0startEngine, __signed_stack_001startEngine, __D0startEngine
7	107	169	#line 107 "C:\Users\Noah\Desktop\nxt\felix\Matrix.nxc"
7	108	169		brtst 4, __ASM_Label_665, __D0startEngine
7	107	172	#line 107 "C:\Users\Noah\Desktop\nxt\felix\Matrix.nxc"
7	108	172		set __signed_stack_001startEngine, 44
7	107	175	#line 107 "C:\Users\Noah\Desktop\nxt\felix\Matrix.nxc"
7	107	175	#line 107 "C:\Users\Noah\Desktop\nxt\felix\Matrix.nxc"
7	108	175		set __D0startEngine, 0
7	108	178	#line 108 "C:\Users\Noah\Desktop\nxt\felix\Matrix.nxc"
7	109	178	#pragma macro 7
7	109	178		setout __constVal1, 2, __signed_stack_001startEngine, 1, __constVal7, 8, __D0startEngine, 6, __constVal32, 7, __constVal0, 5, __constVal0, 10, __constVal96, 11, __constVal32, 12, __constVal32, 0, __constVal63
7	5598	201	#line 5598 "C:\Users\Noah\Desktop\nxt\felix\Matrix.nxc"
7	108	201	#line 108 "C:\Users\Noah\Desktop\nxt\felix\Matrix.nxc"
7	108	201	#line 108 "C:\Users\Noah\Desktop\nxt\felix\Matrix.nxc"
7	109	201		set __signed_stack_001startEngine, 100
7	108	204	#line 108 "C:\Users\Noah\Desktop\nxt\felix\Matrix.nxc"
7	108	204	#line 108 "C:\Users\Noah\Desktop\nxt\felix\Matrix.nxc"
7	109	204		set __D0startEngine, 0
7	109	207	#line 109 "C:\Users\Noah\Desktop\nxt\felix\Matrix.nxc"
7	110	207	#pragma macro 7
7	110	207		setout __constVal2, 2, __signed_stack_001startEngine, 1, __constVal7, 8, __D0startEngine, 6, __constVal32, 7, __constVal0, 5, __constVal0, 10, __constVal96, 11, __constVal32, 12, __constVal32, 0, __constVal63
7	5609	230	#line 5609 "C:\Users\Noah\Desktop\nxt\felix\Matrix.nxc"
7	109	230	#line 109 "C:\Users\Noah\Desktop\nxt\felix\Matrix.nxc"
7	109	230	#line 109 "C:\Users\Noah\Desktop\nxt\felix\Matrix.nxc"
7	110	230		set __signed_stack_001startEngine, 262
7	109	233	#line 109 "C:\Users\Noah\Desktop\nxt\felix\Matrix.nxc"
7	109	233	#line 109 "C:\Users\Noah\Desktop\nxt\felix\Matrix.nxc"
7	110	233		set __signed_stack_002startEngine, 500
7	109	236	#line 109 "C:\Users\Noah\Desktop\nxt\felix\Matrix.nxc"
7	109	236	#line 109 "C:\Users\Noah\Desktop\nxt\felix\Matrix.nxc"
7	110	236		set __signed_stack_003startEngine, 4
7	109	239	#line 109 "C:\Users\Noah\Desktop\nxt\felix\Matrix.nxc"
7	109	239	#line 109 "C:\Users\Noah\Desktop\nxt\felix\Matrix.nxc"
7	110	239		set __D0startEngine, 0
7	110	242	#line 110 "C:\Users\Noah\Desktop\nxt\felix\Matrix.nxc"
7	111	242		acquire __SPTArgsMutex
7	110	243	#line 110 "C:\Users\Noah\Desktop\nxt\felix\Matrix.nxc"
7	111	243		mov __SPTArgs.Frequency, __signed_stack_001startEngine
7	110	245	#line 110 "C:\Users\Noah\Desktop\nxt\felix\Matrix.nxc"
7	111	245		mov __SPTArgs.Duration, __signed_stack_002startEngine
7	110	247	#line 110 "C:\Users\Noah\Desktop\nxt\felix\Matrix.nxc"
7	111	247		mov __SPTArgs.Volume, __signed_stack_003startEngine
7	110	249	#line 110 "C:\Users\Noah\Desktop\nxt\felix\Matrix.nxc"
7	111	249		mov __SPTArgs.Loop, __D0startEngine
7	110	251	#line 110 "C:\Users\Noah\Desktop\nxt\felix\Matrix.nxc"
7	111	251		syscall 10, __SPTArgs
7	110	254	#line 110 "C:\Users\Noah\Desktop\nxt\felix\Matrix.nxc"
7	111	254		mov __D0startEngine, __SPTArgs.Result
7	110	256	#line 110 "C:\Users\Noah\Desktop\nxt\felix\Matrix.nxc"
7	111	256		release __SPTArgsMutex
7	110	257	#line 110 "C:\Users\Noah\Desktop\nxt\felix\Matrix.nxc"
7	110	257	#line 110 "C:\Users\Noah\Desktop\nxt\felix\Matrix.nxc"
7	111	257		getin __signed_stack_001startEngine, __constVal2, 4
7	110	261	#line 110 "C:\Users\Noah\Desktop\nxt\felix\Matrix.nxc"
7	110	261	#line 110 "C:\Users\Noah\Desktop\nxt\felix\Matrix.nxc"
7	111	261		mov __D0startEngine, gsensor3
7	110	263	#line 110 "C:\Users\Noah\Desktop\nxt\felix\Matrix.nxc"
7	111	263		cmp 0, __D0startEngine, __signed_stack_001startEngine, __D0startEngine
7	110	267	#line 110 "C:\Users\Noah\Desktop\nxt\felix\Matrix.nxc"
7	111	267		not __D0startEngine, __D0startEngine
7	111	270	#line 111 "C:\Users\Noah\Desktop\nxt\felix\Matrix.nxc"
7	112	270		tst 5, __D0startEngine, __D0startEngine
7	111	273	#line 111 "C:\Users\Noah\Desktop\nxt\felix\Matrix.nxc"
7	112	273		brtst 4, __ASM_Label_683, __D0startEngine
7	111	276	#line 111 "C:\Users\Noah\Desktop\nxt\felix\Matrix.nxc"
7	111	276	#line 111 "C:\Users\Noah\Desktop\nxt\felix\Matrix.nxc"
7	112	276		jmp __ASM_Label_682
7	111	278	#line 111 "C:\Users\Noah\Desktop\nxt\felix\Matrix.nxc"
7	112	278	#line 112 "C:\Users\Noah\Desktop\nxt\felix\Matrix.nxc"
7	113	278		jmp __ASM_Label_688
7	112	280	#line 112 "C:\Users\Noah\Desktop\nxt\felix\Matrix.nxc"
7	113	280		getin __signed_stack_001startEngine, __constVal3, 4
7	112	284	#line 112 "C:\Users\Noah\Desktop\nxt\felix\Matrix.nxc"
7	112	284	#line 112 "C:\Users\Noah\Desktop\nxt\felix\Matrix.nxc"
7	113	284		mov __D0startEngine, gsensor4
7	112	286	#line 112 "C:\Users\Noah\Desktop\nxt\felix\Matrix.nxc"
7	113	286		cmp 0, __D0startEngine, __signed_stack_001startEngine, __D0startEngine
7	112	290	#line 112 "C:\Users\Noah\Desktop\nxt\felix\Matrix.nxc"
7	113	290		brtst 4, __ASM_Label_690, __D0startEngine
7	112	293	#line 112 "C:\Users\Noah\Desktop\nxt\felix\Matrix.nxc"
7	113	293		getin __signed_stack_001startEngine, __constVal2, 4
7	112	297	#line 112 "C:\Users\Noah\Desktop\nxt\felix\Matrix.nxc"
7	112	297	#line 112 "C:\Users\Noah\Desktop\nxt\felix\Matrix.nxc"
7	113	297		mov __D0startEngine, gsensor3
7	112	299	#line 112 "C:\Users\Noah\Desktop\nxt\felix\Matrix.nxc"
7	113	299		cmp 0, __D0startEngine, __signed_stack_001startEngine, __D0startEngine
7	114	303	#line 114 "C:\Users\Noah\Desktop\nxt\felix\Matrix.nxc"
7	115	303		brtst 4, __ASM_Label_695, __D0startEngine
7	114	306	#line 114 "C:\Users\Noah\Desktop\nxt\felix\Matrix.nxc"
7	115	306		set __signed_stack_001startEngine, 44
7	114	309	#line 114 "C:\Users\Noah\Desktop\nxt\felix\Matrix.nxc"
7	114	309	#line 114 "C:\Users\Noah\Desktop\nxt\felix\Matrix.nxc"
7	115	309		set __D0startEngine, 0
7	115	312	#line 115 "C:\Users\Noah\Desktop\nxt\felix\Matrix.nxc"
7	116	312	#pragma macro 7
7	116	312		setout __constVal2, 2, __signed_stack_001startEngine, 1, __constVal7, 8, __D0startEngine, 6, __constVal32, 7, __constVal0, 5, __constVal0, 10, __constVal96, 11, __constVal32, 12, __constVal32, 0, __constVal63
7	5716	335	#line 5716 "C:\Users\Noah\Desktop\nxt\felix\Matrix.nxc"
7	115	335	#line 115 "C:\Users\Noah\Desktop\nxt\felix\Matrix.nxc"
7	115	335	#line 115 "C:\Users\Noah\Desktop\nxt\felix\Matrix.nxc"
7	116	335		set __signed_stack_001startEngine, 100
7	115	338	#line 115 "C:\Users\Noah\Desktop\nxt\felix\Matrix.nxc"
7	115	338	#line 115 "C:\Users\Noah\Desktop\nxt\felix\Matrix.nxc"
7	116	338		set __D0startEngine, 0
7	116	341	#line 116 "C:\Users\Noah\Desktop\nxt\felix\Matrix.nxc"
7	117	341	#pragma macro 7
7	117	341		setout __constVal1, 2, __signed_stack_001startEngine, 1, __constVal7, 8, __D0startEngine, 6, __constVal32, 7, __constVal0, 5, __constVal0, 10, __constVal96, 11, __constVal32, 12, __constVal32, 0, __constVal63
7	5727	364	#line 5727 "C:\Users\Noah\Desktop\nxt\felix\Matrix.nxc"
7	116	364	#line 116 "C:\Users\Noah\Desktop\nxt\felix\Matrix.nxc"
7	116	364	#line 116 "C:\Users\Noah\Desktop\nxt\felix\Matrix.nxc"
7	117	364		set __signed_stack_001startEngine, 262
7	116	367	#line 116 "C:\Users\Noah\Desktop\nxt\felix\Matrix.nxc"
7	116	367	#line 116 "C:\Users\Noah\Desktop\nxt\felix\Matrix.nxc"
7	117	367		set __signed_stack_002startEngine, 500
7	116	370	#line 116 "C:\Users\Noah\Desktop\nxt\felix\Matrix.nxc"
7	116	370	#line 116 "C:\Users\Noah\Desktop\nxt\felix\Matrix.nxc"
7	117	370		set __signed_stack_003startEngine, 4
7	116	373	#line 116 "C:\Users\Noah\Desktop\nxt\felix\Matrix.nxc"
7	116	373	#line 116 "C:\Users\Noah\Desktop\nxt\felix\Matrix.nxc"
7	117	373		set __D0startEngine, 0
7	117	376	#line 117 "C:\Users\Noah\Desktop\nxt\felix\Matrix.nxc"
7	118	376		acquire __SPTArgsMutex
7	117	377	#line 117 "C:\Users\Noah\Desktop\nxt\felix\Matrix.nxc"
7	118	377		mov __SPTArgs.Frequency, __signed_stack_001startEngine
7	117	379	#line 117 "C:\Users\Noah\Desktop\nxt\felix\Matrix.nxc"
7	118	379		mov __SPTArgs.Duration, __signed_stack_002startEngine
7	117	381	#line 117 "C:\Users\Noah\Desktop\nxt\felix\Matrix.nxc"
7	118	381		mov __SPTArgs.Volume, __signed_stack_003startEngine
7	117	383	#line 117 "C:\Users\Noah\Desktop\nxt\felix\Matrix.nxc"
7	118	383		mov __SPTArgs.Loop, __D0startEngine
7	117	385	#line 117 "C:\Users\Noah\Desktop\nxt\felix\Matrix.nxc"
7	118	385		syscall 10, __SPTArgs
7	117	388	#line 117 "C:\Users\Noah\Desktop\nxt\felix\Matrix.nxc"
7	118	388		mov __D0startEngine, __SPTArgs.Result
7	117	390	#line 117 "C:\Users\Noah\Desktop\nxt\felix\Matrix.nxc"
7	118	390		release __SPTArgsMutex
7	117	391	#line 117 "C:\Users\Noah\Desktop\nxt\felix\Matrix.nxc"
7	117	391	#line 117 "C:\Users\Noah\Desktop\nxt\felix\Matrix.nxc"
7	118	391		getin __signed_stack_001startEngine, __constVal1, 4
7	117	395	#line 117 "C:\Users\Noah\Desktop\nxt\felix\Matrix.nxc"
7	117	395	#line 117 "C:\Users\Noah\Desktop\nxt\felix\Matrix.nxc"
7	118	395		mov __D0startEngine, gsensor2
7	117	397	#line 117 "C:\Users\Noah\Desktop\nxt\felix\Matrix.nxc"
7	118	397		cmp 0, __D0startEngine, __signed_stack_001startEngine, __D0startEngine
7	117	401	#line 117 "C:\Users\Noah\Desktop\nxt\felix\Matrix.nxc"
7	118	401		not __D0startEngine, __D0startEngine
7	118	404	#line 118 "C:\Users\Noah\Desktop\nxt\felix\Matrix.nxc"
7	119	404		tst 5, __D0startEngine, __D0startEngine
7	118	407	#line 118 "C:\Users\Noah\Desktop\nxt\felix\Matrix.nxc"
7	119	407		brtst 4, __ASM_Label_713, __D0startEngine
7	118	410	#line 118 "C:\Users\Noah\Desktop\nxt\felix\Matrix.nxc"
7	118	410	#line 118 "C:\Users\Noah\Desktop\nxt\felix\Matrix.nxc"
7	119	410		jmp __ASM_Label_712
7	118	412	#line 118 "C:\Users\Noah\Desktop\nxt\felix\Matrix.nxc"
7	119	412	#line 119 "C:\Users\Noah\Desktop\nxt\felix\Matrix.nxc"
7	119	412	#line 119 "C:\Users\Noah\Desktop\nxt\felix\Matrix.nxc"
7	119	412	#line 119 "C:\Users\Noah\Desktop\nxt\felix\Matrix.nxc"
7	120	412		getin __signed_stack_001startEngine, __constVal0, 4
7	119	416	#line 119 "C:\Users\Noah\Desktop\nxt\felix\Matrix.nxc"
7	120	416	#line 120 "C:\Users\Noah\Desktop\nxt\felix\Matrix.nxc"
7	121	416		mov __D0startEngine, gsensor1
7	120	418	#line 120 "C:\Users\Noah\Desktop\nxt\felix\Matrix.nxc"
7	121	418		cmp 0, __D0startEngine, __signed_stack_001startEngine, __D0startEngine
7	121	422	#line 121 "C:\Users\Noah\Desktop\nxt\felix\Matrix.nxc"
7	122	422		brtst 4, __ASM_Label_720, __D0startEngine
7	121	425	#line 121 "C:\Users\Noah\Desktop\nxt\felix\Matrix.nxc"
7	122	425		set __signed_stack_001startEngine, 44
7	121	428	#line 121 "C:\Users\Noah\Desktop\nxt\felix\Matrix.nxc"
7	121	428	#line 121 "C:\Users\Noah\Desktop\nxt\felix\Matrix.nxc"
7	122	428		set __D0startEngine, 0
7	122	431	#line 122 "C:\Users\Noah\Desktop\nxt\felix\Matrix.nxc"
7	123	431	#pragma macro 7
7	123	431		setout __constVal1, 2, __signed_stack_001startEngine, 1, __constVal7, 8, __D0startEngine, 6, __constVal32, 7, __constVal0, 5, __constVal0, 10, __constVal96, 11, __constVal32, 12, __constVal32, 0, __constVal63
7	5819	454	#line 5819 "C:\Users\Noah\Desktop\nxt\felix\Matrix.nxc"
7	122	454	#line 122 "C:\Users\Noah\Desktop\nxt\felix\Matrix.nxc"
7	122	454	#line 122 "C:\Users\Noah\Desktop\nxt\felix\Matrix.nxc"
7	123	454		set __signed_stack_001startEngine, 100
7	122	457	#line 122 "C:\Users\Noah\Desktop\nxt\felix\Matrix.nxc"
7	122	457	#line 122 "C:\Users\Noah\Desktop\nxt\felix\Matrix.nxc"
7	123	457		set __D0startEngine, 0
7	123	460	#line 123 "C:\Users\Noah\Desktop\nxt\felix\Matrix.nxc"
7	124	460	#pragma macro 7
7	124	460		setout __constVal2, 2, __signed_stack_001startEngine, 1, __constVal7, 8, __D0startEngine, 6, __constVal32, 7, __constVal0, 5, __constVal0, 10, __constVal96, 11, __constVal32, 12, __constVal32, 0, __constVal63
7	5830	483	#line 5830 "C:\Users\Noah\Desktop\nxt\felix\Matrix.nxc"
7	123	483	#line 123 "C:\Users\Noah\Desktop\nxt\felix\Matrix.nxc"
7	123	483	#line 123 "C:\Users\Noah\Desktop\nxt\felix\Matrix.nxc"
7	124	483		getin __signed_stack_001startEngine, __constVal1, 4
7	123	487	#line 123 "C:\Users\Noah\Desktop\nxt\felix\Matrix.nxc"
7	123	487	#line 123 "C:\Users\Noah\Desktop\nxt\felix\Matrix.nxc"
7	124	487		mov __D0startEngine, gsensor2
7	123	489	#line 123 "C:\Users\Noah\Desktop\nxt\felix\Matrix.nxc"
7	124	489		cmp 0, __D0startEngine, __signed_stack_001startEngine, __D0startEngine
7	123	493	#line 123 "C:\Users\Noah\Desktop\nxt\felix\Matrix.nxc"
7	124	493		not __D0startEngine, __D0startEngine
7	124	496	#line 124 "C:\Users\Noah\Desktop\nxt\felix\Matrix.nxc"
7	125	496		tst 5, __D0startEngine, __D0startEngine
7	124	499	#line 124 "C:\Users\Noah\Desktop\nxt\felix\Matrix.nxc"
7	125	499		brtst 4, __ASM_Label_730, __D0startEngine
7	124	502	#line 124 "C:\Users\Noah\Desktop\nxt\felix\Matrix.nxc"
7	124	502	#line 124 "C:\Users\Noah\Desktop\nxt\felix\Matrix.nxc"
7	125	502		jmp __ASM_Label_729
7	124	504	#line 124 "C:\Users\Noah\Desktop\nxt\felix\Matrix.nxc"
7	125	504	#line 125 "C:\Users\Noah\Desktop\nxt\felix\Matrix.nxc"
7	126	504		jmp __ASM_Label_735
7	125	506	#line 125 "C:\Users\Noah\Desktop\nxt\felix\Matrix.nxc"
7	126	506		getin __signed_stack_001startEngine, __constVal3, 4
7	125	510	#line 125 "C:\Users\Noah\Desktop\nxt\felix\Matrix.nxc"
7	126	510	#line 126 "C:\Users\Noah\Desktop\nxt\felix\Matrix.nxc"
7	127	510		mov __D0startEngine, gsensor4
7	126	512	#line 126 "C:\Users\Noah\Desktop\nxt\felix\Matrix.nxc"
7	127	512		cmp 0, __D0startEngine, __signed_stack_001startEngine, __D0startEngine
7	127	516	#line 127 "C:\Users\Noah\Desktop\nxt\felix\Matrix.nxc"
7	128	516		brtst 4, __ASM_Label_738, __D0startEngine
7	127	519	#line 127 "C:\Users\Noah\Desktop\nxt\felix\Matrix.nxc"
7	128	519		set __signed_stack_001startEngine, 44
7	127	522	#line 127 "C:\Users\Noah\Desktop\nxt\felix\Matrix.nxc"
7	127	522	#line 127 "C:\Users\Noah\Desktop\nxt\felix\Matrix.nxc"
7	128	522		set __D0startEngine, 0
7	128	525	#line 128 "C:\Users\Noah\Desktop\nxt\felix\Matrix.nxc"
7	129	525	#pragma macro 7
7	129	525		setout __constVal2, 2, __signed_stack_001startEngine, 1, __constVal7, 8, __D0startEngine, 6, __constVal32, 7, __constVal0, 5, __constVal0, 10, __constVal96, 11, __constVal32, 12, __constVal32, 0, __constVal63
7	5884	548	#line 5884 "C:\Users\Noah\Desktop\nxt\felix\Matrix.nxc"
7	128	548	#line 128 "C:\Users\Noah\Desktop\nxt\felix\Matrix.nxc"
7	128	548	#line 128 "C:\Users\Noah\Desktop\nxt\felix\Matrix.nxc"
7	129	548		set __signed_stack_001startEngine, 100
7	128	551	#line 128 "C:\Users\Noah\Desktop\nxt\felix\Matrix.nxc"
7	128	551	#line 128 "C:\Users\Noah\Desktop\nxt\felix\Matrix.nxc"
7	129	551		set __D0startEngine, 0
7	129	554	#line 129 "C:\Users\Noah\Desktop\nxt\felix\Matrix.nxc"
7	130	554	#pragma macro 7
7	130	554		setout __constVal1, 2, __signed_stack_001startEngine, 1, __constVal7, 8, __D0startEngine, 6, __constVal32, 7, __constVal0, 5, __constVal0, 10, __constVal96, 11, __constVal32, 12, __constVal32, 0, __constVal63
7	5895	577	#line 5895 "C:\Users\Noah\Desktop\nxt\felix\Matrix.nxc"
7	129	577	#line 129 "C:\Users\Noah\Desktop\nxt\felix\Matrix.nxc"
7	129	577	#line 129 "C:\Users\Noah\Desktop\nxt\felix\Matrix.nxc"
7	130	577		getin __signed_stack_001startEngine, __constVal2, 4
7	129	581	#line 129 "C:\Users\Noah\Desktop\nxt\felix\Matrix.nxc"
7	129	581	#line 129 "C:\Users\Noah\Desktop\nxt\felix\Matrix.nxc"
7	130	581		mov __D0startEngine, gsensor3
7	129	583	#line 129 "C:\Users\Noah\Desktop\nxt\felix\Matrix.nxc"
7	130	583		cmp 0, __D0startEngine, __signed_stack_001startEngine, __D0startEngine
7	129	587	#line 129 "C:\Users\Noah\Desktop\nxt\felix\Matrix.nxc"
7	130	587		not __D0startEngine, __D0startEngine
7	130	590	#line 130 "C:\Users\Noah\Desktop\nxt\felix\Matrix.nxc"
7	131	590		tst 5, __D0startEngine, __D0startEngine
7	130	593	#line 130 "C:\Users\Noah\Desktop\nxt\felix\Matrix.nxc"
7	131	593		brtst 4, __ASM_Label_748, __D0startEngine
7	130	596	#line 130 "C:\Users\Noah\Desktop\nxt\felix\Matrix.nxc"
7	130	596	#line 130 "C:\Users\Noah\Desktop\nxt\felix\Matrix.nxc"
7	131	596		jmp __ASM_Label_747
7	130	598	#line 130 "C:\Users\Noah\Desktop\nxt\felix\Matrix.nxc"
7	131	598	#line 131 "C:\Users\Noah\Desktop\nxt\felix\Matrix.nxc"
7	132	598		jmp __ASM_Label_753
7	131	600	#line 131 "C:\Users\Noah\Desktop\nxt\felix\Matrix.nxc"
7	132	600		getin __signed_stack_001startEngine, __constVal1, 4
7	131	604	#line 131 "C:\Users\Noah\Desktop\nxt\felix\Matrix.nxc"
7	132	604	#line 132 "C:\Users\Noah\Desktop\nxt\felix\Matrix.nxc"
7	133	604		mov __D0startEngine, gsensor2
7	132	606	#line 132 "C:\Users\Noah\Desktop\nxt\felix\Matrix.nxc"
7	133	606		cmp 0, __D0startEngine, __signed_stack_001startEngine, __D0startEngine
7	133	610	#line 133 "C:\Users\Noah\Desktop\nxt\felix\Matrix.nxc"
7	134	610		brtst 4, __ASM_Label_756, __D0startEngine
7	133	613	#line 133 "C:\Users\Noah\Desktop\nxt\felix\Matrix.nxc"
7	134	613		set __signed_stack_001startEngine, 65
7	133	616	#line 133 "C:\Users\Noah\Desktop\nxt\felix\Matrix.nxc"
7	133	616	#line 133 "C:\Users\Noah\Desktop\nxt\felix\Matrix.nxc"
7	134	616		set __D0startEngine, 0
7	134	619	#line 134 "C:\Users\Noah\Desktop\nxt\felix\Matrix.nxc"
7	135	619	#pragma macro 7
7	135	619		setout __constVal1, 2, __signed_stack_001startEngine, 1, __constVal7, 8, __D0startEngine, 6, __constVal32, 7, __constVal0, 5, __constVal0, 10, __constVal96, 11, __constVal32, 12, __constVal32, 0, __constVal63
7	5949	642	#line 5949 "C:\Users\Noah\Desktop\nxt\felix\Matrix.nxc"
7	134	642	#line 134 "C:\Users\Noah\Desktop\nxt\felix\Matrix.nxc"
7	134	642	#line 134 "C:\Users\Noah\Desktop\nxt\felix\Matrix.nxc"
7	135	642		set __signed_stack_001startEngine, 100
7	134	645	#line 134 "C:\Users\Noah\Desktop\nxt\felix\Matrix.nxc"
7	134	645	#line 134 "C:\Users\Noah\Desktop\nxt\felix\Matrix.nxc"
7	135	645		set __D0startEngine, 0
7	135	648	#line 135 "C:\Users\Noah\Desktop\nxt\felix\Matrix.nxc"
7	136	648	#pragma macro 7
7	136	648		setout __constVal2, 2, __signed_stack_001startEngine, 1, __constVal7, 8, __D0startEngine, 6, __constVal32, 7, __constVal0, 5, __constVal0, 10, __constVal96, 11, __constVal32, 12, __constVal32, 0, __constVal63
7	5960	671	#line 5960 "C:\Users\Noah\Desktop\nxt\felix\Matrix.nxc"
7	135	671	#line 135 "C:\Users\Noah\Desktop\nxt\felix\Matrix.nxc"
7	135	671	#line 135 "C:\Users\Noah\Desktop\nxt\felix\Matrix.nxc"
7	136	671		getin __signed_stack_001startEngine, __constVal1, 4
7	135	675	#line 135 "C:\Users\Noah\Desktop\nxt\felix\Matrix.nxc"
7	135	675	#line 135 "C:\Users\Noah\Desktop\nxt\felix\Matrix.nxc"
7	136	675		mov __D0startEngine, gsensor2
7	135	677	#line 135 "C:\Users\Noah\Desktop\nxt\felix\Matrix.nxc"
7	136	677		cmp 1, __D0startEngine, __signed_stack_001startEngine, __D0startEngine
7	135	681	#line 135 "C:\Users\Noah\Desktop\nxt\felix\Matrix.nxc"
7	136	681		not __D0startEngine, __D0startEngine
7	136	684	#line 136 "C:\Users\Noah\Desktop\nxt\felix\Matrix.nxc"
7	137	684		tst 5, __D0startEngine, __D0startEngine
7	136	687	#line 136 "C:\Users\Noah\Desktop\nxt\felix\Matrix.nxc"
7	137	687		brtst 4, __ASM_Label_766, __D0startEngine
7	136	690	#line 136 "C:\Users\Noah\Desktop\nxt\felix\Matrix.nxc"
7	136	690	#line 136 "C:\Users\Noah\Desktop\nxt\felix\Matrix.nxc"
7	137	690		jmp __ASM_Label_765
7	136	692	#line 136 "C:\Users\Noah\Desktop\nxt\felix\Matrix.nxc"
7	137	692	#line 137 "C:\Users\Noah\Desktop\nxt\felix\Matrix.nxc"
7	138	692		jmp __ASM_Label_771
7	137	694	#line 137 "C:\Users\Noah\Desktop\nxt\felix\Matrix.nxc"
7	138	694		getin __signed_stack_001startEngine, __constVal2, 4
7	137	698	#line 137 "C:\Users\Noah\Desktop\nxt\felix\Matrix.nxc"
7	138	698	#line 138 "C:\Users\Noah\Desktop\nxt\felix\Matrix.nxc"
7	139	698		mov __D0startEngine, gsensor3
7	138	700	#line 138 "C:\Users\Noah\Desktop\nxt\felix\Matrix.nxc"
7	139	700		cmp 0, __D0startEngine, __signed_stack_001startEngine, __D0startEngine
7	139	704	#line 139 "C:\Users\Noah\Desktop\nxt\felix\Matrix.nxc"
7	140	704		brtst 4, __ASM_Label_774, __D0startEngine
7	139	707	#line 139 "C:\Users\Noah\Desktop\nxt\felix\Matrix.nxc"
7	140	707		set __signed_stack_001startEngine, 65
7	139	710	#line 139 "C:\Users\Noah\Desktop\nxt\felix\Matrix.nxc"
7	139	710	#line 139 "C:\Users\Noah\Desktop\nxt\felix\Matrix.nxc"
7	140	710		set __D0startEngine, 0
7	140	713	#line 140 "C:\Users\Noah\Desktop\nxt\felix\Matrix.nxc"
7	141	713	#pragma macro 7
7	141	713		setout __constVal2, 2, __signed_stack_001startEngine, 1, __constVal7, 8, __D0startEngine, 6, __constVal32, 7, __constVal0, 5, __constVal0, 10, __constVal96, 11, __constVal32, 12, __constVal32, 0, __constVal63
7	6014	736	#line 6014 "C:\Users\Noah\Desktop\nxt\felix\Matrix.nxc"
7	140	736	#line 140 "C:\Users\Noah\Desktop\nxt\felix\Matrix.nxc"
7	140	736	#line 140 "C:\Users\Noah\Desktop\nxt\felix\Matrix.nxc"
7	141	736		set __signed_stack_001startEngine, 100
7	140	739	#line 140 "C:\Users\Noah\Desktop\nxt\felix\Matrix.nxc"
7	140	739	#line 140 "C:\Users\Noah\Desktop\nxt\felix\Matrix.nxc"
7	141	739		set __D0startEngine, 0
7	141	742	#line 141 "C:\Users\Noah\Desktop\nxt\felix\Matrix.nxc"
7	142	742	#pragma macro 7
7	142	742		setout __constVal1, 2, __signed_stack_001startEngine, 1, __constVal7, 8, __D0startEngine, 6, __constVal32, 7, __constVal0, 5, __constVal0, 10, __constVal96, 11, __constVal32, 12, __constVal32, 0, __constVal63
7	6025	765	#line 6025 "C:\Users\Noah\Desktop\nxt\felix\Matrix.nxc"
7	141	765	#line 141 "C:\Users\Noah\Desktop\nxt\felix\Matrix.nxc"
7	141	765	#line 141 "C:\Users\Noah\Desktop\nxt\felix\Matrix.nxc"
7	142	765		getin __signed_stack_001startEngine, __constVal2, 4
7	141	769	#line 141 "C:\Users\Noah\Desktop\nxt\felix\Matrix.nxc"
7	141	769	#line 141 "C:\Users\Noah\Desktop\nxt\felix\Matrix.nxc"
7	142	769		mov __D0startEngine, gsensor3
7	141	771	#line 141 "C:\Users\Noah\Desktop\nxt\felix\Matrix.nxc"
7	142	771		cmp 1, __D0startEngine, __signed_stack_001startEngine, __D0startEngine
7	141	775	#line 141 "C:\Users\Noah\Desktop\nxt\felix\Matrix.nxc"
7	142	775		not __D0startEngine, __D0startEngine
7	142	778	#line 142 "C:\Users\Noah\Desktop\nxt\felix\Matrix.nxc"
7	143	778		tst 5, __D0startEngine, __D0startEngine
7	142	781	#line 142 "C:\Users\Noah\Desktop\nxt\felix\Matrix.nxc"
7	143	781		brtst 4, __ASM_Label_784, __D0startEngine
7	142	784	#line 142 "C:\Users\Noah\Desktop\nxt\felix\Matrix.nxc"
7	142	784	#line 142 "C:\Users\Noah\Desktop\nxt\felix\Matrix.nxc"
7	143	784		jmp __ASM_Label_783
7	142	786	#line 142 "C:\Users\Noah\Desktop\nxt\felix\Matrix.nxc"
7	144	786	#line 144 "C:\Users\Noah\Desktop\nxt\felix\Matrix.nxc"
7	144	786	#line 144 "C:\Users\Noah\Desktop\nxt\felix\Matrix.nxc"
7	144	786	#line 144 "C:\Users\Noah\Desktop\nxt\felix\Matrix.nxc"
7	144	786	#line 144 "C:\Users\Noah\Desktop\nxt\felix\Matrix.nxc"
7	146	786	#line 146 "C:\Users\Noah\Desktop\nxt\felix\Matrix.nxc"
7	147	786		jmp __ASM_Label_639
7	146	788	#line 146 "C:\Users\Noah\Desktop\nxt\felix\Matrix.nxc"
7	146	788	#line 146 "C:\Users\Noah\Desktop\nxt\felix\Matrix.nxc"
7	147	788		subret __startEngine_return
8	188	0	#line 188 "C:\Users\Noah\Desktop\nxt\felix\Matrix.nxc"
8	189	0		subret ____initialize_global_data_return
#CLUMPS
Clump	Name	Offset	File
0	main	0	C:\Users\Noah\Desktop\nxt\felix\Matrix.nxc
1	__ResetSensorSubroutine	477	NXTDefs.h
2	__readStringLine	490	NXTDefs.h
3	fopen	539	NXCDefs.h
4	saveCalibratedValues	619	C:\Users\Noah\Desktop\nxt\felix\Matrix.nxc
5	readCalibratedValues	1093	C:\Users\Noah\Desktop\nxt\felix\Matrix.nxc
6	calibrateSensors	1327	C:\Users\Noah\Desktop\nxt\felix\Matrix.nxc
7	startEngine	1669	C:\Users\Noah\Desktop\nxt\felix\Matrix.nxc
8	__initialize_global_data	2459	C:\Users\Noah\Desktop\nxt\felix\Matrix.nxc
